; ModuleID = 'test_and_or_operators.cpp'
source_filename = "test_and_or_operators.cpp"
target datalayout = "e-m:o-i64:64-f80:128-n8:16:32:64-S128"
target triple = "x86_64-apple-macosx10.12.0"

%"class.std::__1::__libcpp_compressed_pair_imp" = type { %"struct.std::__1::basic_string<char, std::__1::char_traits<char>, std::__1::allocator<char> >::__rep" }
%"struct.std::__1::basic_string<char, std::__1::char_traits<char>, std::__1::allocator<char> >::__rep" = type { %union.anon }
%union.anon = type { %"struct.std::__1::basic_string<char, std::__1::char_traits<char>, std::__1::allocator<char> >::__long" }
%"struct.std::__1::basic_string<char, std::__1::char_traits<char>, std::__1::allocator<char> >::__long" = type { i64, i64, i8* }
%"class.std::__1::__compressed_pair" = type { %"class.std::__1::__libcpp_compressed_pair_imp" }
%"class.std::__1::basic_string" = type { %"class.std::__1::__compressed_pair" }
%"struct.std::__1::pair" = type { i8*, i8* }
%"class.std::__1::allocator" = type { i8 }
%"class.std::__1::__basic_string_common" = type { i8 }
%"struct.std::__1::basic_string<char, std::__1::char_traits<char>, std::__1::allocator<char> >::__short" = type { %union.anon.0, [23 x i8] }
%union.anon.0 = type { i8 }
%"struct.std::__1::random_access_iterator_tag" = type { i8 }

@.str = private unnamed_addr constant [5 x i8] c"STR1\00", align 1
@.str.1 = private unnamed_addr constant [5 x i8] c"STR2\00", align 1
@.str.2 = private unnamed_addr constant [13 x i8] c"left branch\0A\00", align 1
@.str.3 = private unnamed_addr constant [14 x i8] c"right branch\0A\00", align 1
@.str.4 = private unnamed_addr constant [15 x i8] c"result is: %d\0A\00", align 1
@__func__._Z38testee_OR_operator_with_CPP_and_assertv = private unnamed_addr constant [39 x i8] c"testee_OR_operator_with_CPP_and_assert\00", align 1
@.str.5 = private unnamed_addr constant [26 x i8] c"test_and_or_operators.cpp\00", align 1
@.str.6 = private unnamed_addr constant [91 x i8] c"(string1.find(\22STR1\22) != std::string::npos) || (string2.find(\22STR1\22) != std::string::npos)\00", align 1
@__func__._Z39testee_AND_operator_with_CPP_and_assertv = private unnamed_addr constant [40 x i8] c"testee_AND_operator_with_CPP_and_assert\00", align 1
@.str.7 = private unnamed_addr constant [102 x i8] c"((string1.find(\22STR1\22) != std::string::npos) && (string2.find(\22STR1\22) != std::string::npos)) == false\00", align 1

; Function Attrs: ssp uwtable
define zeroext i1 @_Z27testee_OR_operator_with_CPPv() #0 personality i8* bitcast (i32 (...)* @__gxx_personality_v0 to i8*) !dbg !1422 {
  %1 = alloca %"class.std::__1::__libcpp_compressed_pair_imp"*, align 8
  call void @llvm.dbg.declare(metadata %"class.std::__1::__libcpp_compressed_pair_imp"** %1, metadata !1425, metadata !1428), !dbg !1429
  %2 = alloca %"class.std::__1::__compressed_pair"*, align 8
  call void @llvm.dbg.declare(metadata %"class.std::__1::__compressed_pair"** %2, metadata !1440, metadata !1428), !dbg !1442
  %3 = alloca %"class.std::__1::basic_string"*, align 8
  call void @llvm.dbg.declare(metadata %"class.std::__1::basic_string"** %3, metadata !1443, metadata !1428), !dbg !1445
  %4 = alloca %"class.std::__1::__libcpp_compressed_pair_imp"*, align 8
  call void @llvm.dbg.declare(metadata %"class.std::__1::__libcpp_compressed_pair_imp"** %4, metadata !1425, metadata !1428), !dbg !1446
  %5 = alloca %"class.std::__1::__compressed_pair"*, align 8
  call void @llvm.dbg.declare(metadata %"class.std::__1::__compressed_pair"** %5, metadata !1440, metadata !1428), !dbg !1451
  %6 = alloca %"class.std::__1::basic_string"*, align 8
  call void @llvm.dbg.declare(metadata %"class.std::__1::basic_string"** %6, metadata !1452, metadata !1428), !dbg !1453
  %7 = alloca %"class.std::__1::__libcpp_compressed_pair_imp"*, align 8
  call void @llvm.dbg.declare(metadata %"class.std::__1::__libcpp_compressed_pair_imp"** %7, metadata !1425, metadata !1428), !dbg !1454
  %8 = alloca %"class.std::__1::__compressed_pair"*, align 8
  call void @llvm.dbg.declare(metadata %"class.std::__1::__compressed_pair"** %8, metadata !1440, metadata !1428), !dbg !1459
  %9 = alloca %"class.std::__1::basic_string"*, align 8
  call void @llvm.dbg.declare(metadata %"class.std::__1::basic_string"** %9, metadata !1460, metadata !1428), !dbg !1461
  %10 = alloca %"class.std::__1::basic_string"*, align 8
  call void @llvm.dbg.declare(metadata %"class.std::__1::basic_string"** %10, metadata !1462, metadata !1428), !dbg !1463
  %11 = alloca i64, align 8
  %12 = alloca i8*, align 8
  call void @llvm.dbg.declare(metadata i8** %12, metadata !1464, metadata !1428), !dbg !1471
  %13 = alloca i64, align 8
  call void @llvm.dbg.declare(metadata i64* %13, metadata !1473, metadata !1428), !dbg !1474
  %14 = alloca i8*, align 8
  call void @llvm.dbg.declare(metadata i8** %14, metadata !1475, metadata !1428), !dbg !1476
  %15 = alloca i64, align 8
  call void @llvm.dbg.declare(metadata i64* %15, metadata !1477, metadata !1428), !dbg !1478
  %16 = alloca i64, align 8
  call void @llvm.dbg.declare(metadata i64* %16, metadata !1479, metadata !1428), !dbg !1480
  %17 = alloca i8*, align 8
  call void @llvm.dbg.declare(metadata i8** %17, metadata !1481, metadata !1428), !dbg !1482
  %18 = alloca i8*
  %19 = alloca i32
  %20 = alloca %"struct.std::__1::pair", align 8
  %21 = alloca i8*, align 8
  call void @llvm.dbg.declare(metadata i8** %21, metadata !1483, metadata !1428), !dbg !1489
  %22 = alloca %"class.std::__1::__libcpp_compressed_pair_imp"*, align 8
  call void @llvm.dbg.declare(metadata %"class.std::__1::__libcpp_compressed_pair_imp"** %22, metadata !1425, metadata !1428), !dbg !1493
  %23 = alloca %"class.std::__1::__compressed_pair"*, align 8
  call void @llvm.dbg.declare(metadata %"class.std::__1::__compressed_pair"** %23, metadata !1440, metadata !1428), !dbg !1500
  %24 = alloca %"class.std::__1::basic_string"*, align 8
  call void @llvm.dbg.declare(metadata %"class.std::__1::basic_string"** %24, metadata !1501, metadata !1428), !dbg !1502
  %25 = alloca i8*, align 8
  call void @llvm.dbg.declare(metadata i8** %25, metadata !1503, metadata !1428), !dbg !1507
  %26 = alloca i8*, align 8
  call void @llvm.dbg.declare(metadata i8** %26, metadata !1528, metadata !1428), !dbg !1529
  %27 = alloca %"class.std::__1::__libcpp_compressed_pair_imp"*, align 8
  call void @llvm.dbg.declare(metadata %"class.std::__1::__libcpp_compressed_pair_imp"** %27, metadata !1425, metadata !1428), !dbg !1530
  %28 = alloca %"class.std::__1::__compressed_pair"*, align 8
  call void @llvm.dbg.declare(metadata %"class.std::__1::__compressed_pair"** %28, metadata !1440, metadata !1428), !dbg !1533
  %29 = alloca %"class.std::__1::basic_string"*, align 8
  call void @llvm.dbg.declare(metadata %"class.std::__1::basic_string"** %29, metadata !1534, metadata !1428), !dbg !1535
  %30 = alloca %"class.std::__1::__libcpp_compressed_pair_imp"*, align 8
  call void @llvm.dbg.declare(metadata %"class.std::__1::__libcpp_compressed_pair_imp"** %30, metadata !1425, metadata !1428), !dbg !1536
  %31 = alloca %"class.std::__1::__compressed_pair"*, align 8
  call void @llvm.dbg.declare(metadata %"class.std::__1::__compressed_pair"** %31, metadata !1440, metadata !1428), !dbg !1540
  %32 = alloca %"class.std::__1::basic_string"*, align 8
  call void @llvm.dbg.declare(metadata %"class.std::__1::basic_string"** %32, metadata !1460, metadata !1428), !dbg !1541
  %33 = alloca %"class.std::__1::basic_string"*, align 8
  call void @llvm.dbg.declare(metadata %"class.std::__1::basic_string"** %33, metadata !1542, metadata !1428), !dbg !1543
  %34 = alloca %"class.std::__1::basic_string"*, align 8
  call void @llvm.dbg.declare(metadata %"class.std::__1::basic_string"** %34, metadata !1544, metadata !1428), !dbg !1545
  %35 = alloca %"class.std::__1::basic_string"*, align 8
  call void @llvm.dbg.declare(metadata %"class.std::__1::basic_string"** %35, metadata !1546, metadata !1428), !dbg !1547
  %36 = alloca i8*, align 8
  call void @llvm.dbg.declare(metadata i8** %36, metadata !1548, metadata !1428), !dbg !1549
  %37 = alloca i64, align 8
  call void @llvm.dbg.declare(metadata i64* %37, metadata !1550, metadata !1428), !dbg !1551
  %38 = alloca i8*
  %39 = alloca i32
  %40 = alloca %"class.std::__1::__libcpp_compressed_pair_imp"*, align 8
  call void @llvm.dbg.declare(metadata %"class.std::__1::__libcpp_compressed_pair_imp"** %40, metadata !1425, metadata !1428), !dbg !1552
  %41 = alloca %"class.std::__1::__compressed_pair"*, align 8
  call void @llvm.dbg.declare(metadata %"class.std::__1::__compressed_pair"** %41, metadata !1440, metadata !1428), !dbg !1558
  %42 = alloca %"class.std::__1::basic_string"*, align 8
  call void @llvm.dbg.declare(metadata %"class.std::__1::basic_string"** %42, metadata !1443, metadata !1428), !dbg !1559
  %43 = alloca %"class.std::__1::__libcpp_compressed_pair_imp"*, align 8
  call void @llvm.dbg.declare(metadata %"class.std::__1::__libcpp_compressed_pair_imp"** %43, metadata !1425, metadata !1428), !dbg !1560
  %44 = alloca %"class.std::__1::__compressed_pair"*, align 8
  call void @llvm.dbg.declare(metadata %"class.std::__1::__compressed_pair"** %44, metadata !1440, metadata !1428), !dbg !1564
  %45 = alloca %"class.std::__1::basic_string"*, align 8
  call void @llvm.dbg.declare(metadata %"class.std::__1::basic_string"** %45, metadata !1452, metadata !1428), !dbg !1565
  %46 = alloca %"class.std::__1::__libcpp_compressed_pair_imp"*, align 8
  call void @llvm.dbg.declare(metadata %"class.std::__1::__libcpp_compressed_pair_imp"** %46, metadata !1425, metadata !1428), !dbg !1566
  %47 = alloca %"class.std::__1::__compressed_pair"*, align 8
  call void @llvm.dbg.declare(metadata %"class.std::__1::__compressed_pair"** %47, metadata !1440, metadata !1428), !dbg !1570
  %48 = alloca %"class.std::__1::basic_string"*, align 8
  call void @llvm.dbg.declare(metadata %"class.std::__1::basic_string"** %48, metadata !1460, metadata !1428), !dbg !1571
  %49 = alloca %"class.std::__1::basic_string"*, align 8
  call void @llvm.dbg.declare(metadata %"class.std::__1::basic_string"** %49, metadata !1462, metadata !1428), !dbg !1572
  %50 = alloca i64, align 8
  %51 = alloca i8*, align 8
  call void @llvm.dbg.declare(metadata i8** %51, metadata !1464, metadata !1428), !dbg !1573
  %52 = alloca i64, align 8
  call void @llvm.dbg.declare(metadata i64* %52, metadata !1473, metadata !1428), !dbg !1575
  %53 = alloca i8*, align 8
  call void @llvm.dbg.declare(metadata i8** %53, metadata !1475, metadata !1428), !dbg !1576
  %54 = alloca i64, align 8
  call void @llvm.dbg.declare(metadata i64* %54, metadata !1477, metadata !1428), !dbg !1577
  %55 = alloca i64, align 8
  call void @llvm.dbg.declare(metadata i64* %55, metadata !1479, metadata !1428), !dbg !1578
  %56 = alloca i8*, align 8
  call void @llvm.dbg.declare(metadata i8** %56, metadata !1481, metadata !1428), !dbg !1579
  %57 = alloca i8*
  %58 = alloca i32
  %59 = alloca %"struct.std::__1::pair", align 8
  %60 = alloca i8*, align 8
  call void @llvm.dbg.declare(metadata i8** %60, metadata !1483, metadata !1428), !dbg !1580
  %61 = alloca %"class.std::__1::__libcpp_compressed_pair_imp"*, align 8
  call void @llvm.dbg.declare(metadata %"class.std::__1::__libcpp_compressed_pair_imp"** %61, metadata !1425, metadata !1428), !dbg !1583
  %62 = alloca %"class.std::__1::__compressed_pair"*, align 8
  call void @llvm.dbg.declare(metadata %"class.std::__1::__compressed_pair"** %62, metadata !1440, metadata !1428), !dbg !1588
  %63 = alloca %"class.std::__1::basic_string"*, align 8
  call void @llvm.dbg.declare(metadata %"class.std::__1::basic_string"** %63, metadata !1501, metadata !1428), !dbg !1589
  %64 = alloca i8*, align 8
  call void @llvm.dbg.declare(metadata i8** %64, metadata !1503, metadata !1428), !dbg !1590
  %65 = alloca i8*, align 8
  call void @llvm.dbg.declare(metadata i8** %65, metadata !1528, metadata !1428), !dbg !1594
  %66 = alloca %"class.std::__1::__libcpp_compressed_pair_imp"*, align 8
  call void @llvm.dbg.declare(metadata %"class.std::__1::__libcpp_compressed_pair_imp"** %66, metadata !1425, metadata !1428), !dbg !1595
  %67 = alloca %"class.std::__1::__compressed_pair"*, align 8
  call void @llvm.dbg.declare(metadata %"class.std::__1::__compressed_pair"** %67, metadata !1440, metadata !1428), !dbg !1598
  %68 = alloca %"class.std::__1::basic_string"*, align 8
  call void @llvm.dbg.declare(metadata %"class.std::__1::basic_string"** %68, metadata !1534, metadata !1428), !dbg !1599
  %69 = alloca %"class.std::__1::__libcpp_compressed_pair_imp"*, align 8
  call void @llvm.dbg.declare(metadata %"class.std::__1::__libcpp_compressed_pair_imp"** %69, metadata !1425, metadata !1428), !dbg !1600
  %70 = alloca %"class.std::__1::__compressed_pair"*, align 8
  call void @llvm.dbg.declare(metadata %"class.std::__1::__compressed_pair"** %70, metadata !1440, metadata !1428), !dbg !1604
  %71 = alloca %"class.std::__1::basic_string"*, align 8
  call void @llvm.dbg.declare(metadata %"class.std::__1::basic_string"** %71, metadata !1460, metadata !1428), !dbg !1605
  %72 = alloca %"class.std::__1::basic_string"*, align 8
  call void @llvm.dbg.declare(metadata %"class.std::__1::basic_string"** %72, metadata !1542, metadata !1428), !dbg !1606
  %73 = alloca %"class.std::__1::basic_string"*, align 8
  call void @llvm.dbg.declare(metadata %"class.std::__1::basic_string"** %73, metadata !1544, metadata !1428), !dbg !1607
  %74 = alloca %"class.std::__1::basic_string"*, align 8
  call void @llvm.dbg.declare(metadata %"class.std::__1::basic_string"** %74, metadata !1546, metadata !1428), !dbg !1608
  %75 = alloca i8*, align 8
  call void @llvm.dbg.declare(metadata i8** %75, metadata !1548, metadata !1428), !dbg !1609
  %76 = alloca i64, align 8
  call void @llvm.dbg.declare(metadata i64* %76, metadata !1550, metadata !1428), !dbg !1610
  %77 = alloca i8*
  %78 = alloca i32
  %79 = alloca %"class.std::__1::allocator"*, align 8
  call void @llvm.dbg.declare(metadata %"class.std::__1::allocator"** %79, metadata !1611, metadata !1428), !dbg !1614
  %80 = alloca %"class.std::__1::__libcpp_compressed_pair_imp"*, align 8
  call void @llvm.dbg.declare(metadata %"class.std::__1::__libcpp_compressed_pair_imp"** %80, metadata !1626, metadata !1428), !dbg !1628
  %81 = alloca %"class.std::__1::__compressed_pair"*, align 8
  call void @llvm.dbg.declare(metadata %"class.std::__1::__compressed_pair"** %81, metadata !1629, metadata !1428), !dbg !1631
  %82 = alloca %"class.std::__1::__compressed_pair"*, align 8
  call void @llvm.dbg.declare(metadata %"class.std::__1::__compressed_pair"** %82, metadata !1632, metadata !1428), !dbg !1633
  %83 = alloca %"class.std::__1::basic_string"*, align 8
  call void @llvm.dbg.declare(metadata %"class.std::__1::basic_string"** %83, metadata !1634, metadata !1428), !dbg !1636
  %84 = alloca i8*, align 8
  call void @llvm.dbg.declare(metadata i8** %84, metadata !1637, metadata !1428), !dbg !1638
  %85 = alloca %"class.std::__1::basic_string"*, align 8
  call void @llvm.dbg.declare(metadata %"class.std::__1::basic_string"** %85, metadata !1639, metadata !1428), !dbg !1640
  %86 = alloca i8*, align 8
  call void @llvm.dbg.declare(metadata i8** %86, metadata !1641, metadata !1428), !dbg !1642
  %87 = alloca %"class.std::__1::allocator"*, align 8
  call void @llvm.dbg.declare(metadata %"class.std::__1::allocator"** %87, metadata !1611, metadata !1428), !dbg !1643
  %88 = alloca %"class.std::__1::__libcpp_compressed_pair_imp"*, align 8
  call void @llvm.dbg.declare(metadata %"class.std::__1::__libcpp_compressed_pair_imp"** %88, metadata !1626, metadata !1428), !dbg !1650
  %89 = alloca %"class.std::__1::__compressed_pair"*, align 8
  call void @llvm.dbg.declare(metadata %"class.std::__1::__compressed_pair"** %89, metadata !1629, metadata !1428), !dbg !1651
  %90 = alloca %"class.std::__1::__compressed_pair"*, align 8
  call void @llvm.dbg.declare(metadata %"class.std::__1::__compressed_pair"** %90, metadata !1632, metadata !1428), !dbg !1652
  %91 = alloca %"class.std::__1::basic_string"*, align 8
  call void @llvm.dbg.declare(metadata %"class.std::__1::basic_string"** %91, metadata !1634, metadata !1428), !dbg !1653
  %92 = alloca i8*, align 8
  call void @llvm.dbg.declare(metadata i8** %92, metadata !1637, metadata !1428), !dbg !1654
  %93 = alloca %"class.std::__1::basic_string"*, align 8
  call void @llvm.dbg.declare(metadata %"class.std::__1::basic_string"** %93, metadata !1639, metadata !1428), !dbg !1655
  %94 = alloca i8*, align 8
  call void @llvm.dbg.declare(metadata i8** %94, metadata !1641, metadata !1428), !dbg !1656
  %95 = alloca i1, align 1
  %96 = alloca %"class.std::__1::basic_string", align 8
  %97 = alloca %"class.std::__1::basic_string", align 8
  %98 = alloca i8*
  %99 = alloca i32
  %100 = alloca i32
  call void @llvm.dbg.declare(metadata %"class.std::__1::basic_string"* %96, metadata !1657, metadata !1428), !dbg !1660
  store %"class.std::__1::basic_string"* %96, %"class.std::__1::basic_string"** %93, align 8, !dbg !1661
  store i8* getelementptr inbounds ([5 x i8], [5 x i8]* @.str, i32 0, i32 0), i8** %94, align 8, !dbg !1661
  %101 = load %"class.std::__1::basic_string"*, %"class.std::__1::basic_string"** %93, align 8, !dbg !1661
  %102 = load i8*, i8** %94, align 8, !dbg !1662
  store %"class.std::__1::basic_string"* %101, %"class.std::__1::basic_string"** %91, align 8, !dbg !1662
  store i8* %102, i8** %92, align 8, !dbg !1662
  %103 = load %"class.std::__1::basic_string"*, %"class.std::__1::basic_string"** %91, align 8, !dbg !1662
  %104 = bitcast %"class.std::__1::basic_string"* %103 to %"class.std::__1::__basic_string_common"*, !dbg !1663
  %105 = getelementptr inbounds %"class.std::__1::basic_string", %"class.std::__1::basic_string"* %103, i32 0, i32 0, !dbg !1664
  store %"class.std::__1::__compressed_pair"* %105, %"class.std::__1::__compressed_pair"** %90, align 8, !dbg !1664
  %106 = load %"class.std::__1::__compressed_pair"*, %"class.std::__1::__compressed_pair"** %90, align 8, !dbg !1664
  store %"class.std::__1::__compressed_pair"* %106, %"class.std::__1::__compressed_pair"** %89, align 8, !dbg !1665
  %107 = load %"class.std::__1::__compressed_pair"*, %"class.std::__1::__compressed_pair"** %89, align 8, !dbg !1665
  %108 = bitcast %"class.std::__1::__compressed_pair"* %107 to %"class.std::__1::__libcpp_compressed_pair_imp"*, !dbg !1666
  store %"class.std::__1::__libcpp_compressed_pair_imp"* %108, %"class.std::__1::__libcpp_compressed_pair_imp"** %88, align 8, !dbg !1667
  %109 = load %"class.std::__1::__libcpp_compressed_pair_imp"*, %"class.std::__1::__libcpp_compressed_pair_imp"** %88, align 8, !dbg !1667
  %110 = bitcast %"class.std::__1::__libcpp_compressed_pair_imp"* %109 to %"class.std::__1::allocator"*, !dbg !1668
  store %"class.std::__1::allocator"* %110, %"class.std::__1::allocator"** %87, align 8, !dbg !1669
  %111 = load %"class.std::__1::allocator"*, %"class.std::__1::allocator"** %87, align 8, !dbg !1669
  %112 = getelementptr inbounds %"class.std::__1::__libcpp_compressed_pair_imp", %"class.std::__1::__libcpp_compressed_pair_imp"* %109, i32 0, i32 0, !dbg !1670
  %113 = bitcast %"struct.std::__1::basic_string<char, std::__1::char_traits<char>, std::__1::allocator<char> >::__rep"* %112 to i8*, !dbg !1670
  call void @llvm.memset.p0i8.i64(i8* %113, i8 0, i64 24, i32 8, i1 false) #8, !dbg !1670
  %114 = load i8*, i8** %92, align 8, !dbg !1671
  %115 = load i8*, i8** %92, align 8, !dbg !1673
  %116 = call i64 @_ZNSt3__111char_traitsIcE6lengthEPKc(i8* %115), !dbg !1674
  call void @_ZNSt3__112basic_stringIcNS_11char_traitsIcEENS_9allocatorIcEEE6__initEPKcm(%"class.std::__1::basic_string"* %103, i8* %114, i64 %116), !dbg !1675
  call void @llvm.dbg.declare(metadata %"class.std::__1::basic_string"* %97, metadata !1676, metadata !1428), !dbg !1677
  store %"class.std::__1::basic_string"* %97, %"class.std::__1::basic_string"** %85, align 8, !dbg !1678
  store i8* getelementptr inbounds ([5 x i8], [5 x i8]* @.str.1, i32 0, i32 0), i8** %86, align 8, !dbg !1678
  %117 = load %"class.std::__1::basic_string"*, %"class.std::__1::basic_string"** %85, align 8, !dbg !1678
  %118 = load i8*, i8** %86, align 8, !dbg !1679
  store %"class.std::__1::basic_string"* %117, %"class.std::__1::basic_string"** %83, align 8, !dbg !1679
  store i8* %118, i8** %84, align 8, !dbg !1679
  %119 = load %"class.std::__1::basic_string"*, %"class.std::__1::basic_string"** %83, align 8, !dbg !1679
  %120 = bitcast %"class.std::__1::basic_string"* %119 to %"class.std::__1::__basic_string_common"*, !dbg !1680
  %121 = getelementptr inbounds %"class.std::__1::basic_string", %"class.std::__1::basic_string"* %119, i32 0, i32 0, !dbg !1681
  store %"class.std::__1::__compressed_pair"* %121, %"class.std::__1::__compressed_pair"** %82, align 8, !dbg !1681
  %122 = load %"class.std::__1::__compressed_pair"*, %"class.std::__1::__compressed_pair"** %82, align 8, !dbg !1681
  store %"class.std::__1::__compressed_pair"* %122, %"class.std::__1::__compressed_pair"** %81, align 8, !dbg !1682
  %123 = load %"class.std::__1::__compressed_pair"*, %"class.std::__1::__compressed_pair"** %81, align 8, !dbg !1682
  %124 = bitcast %"class.std::__1::__compressed_pair"* %123 to %"class.std::__1::__libcpp_compressed_pair_imp"*, !dbg !1683
  store %"class.std::__1::__libcpp_compressed_pair_imp"* %124, %"class.std::__1::__libcpp_compressed_pair_imp"** %80, align 8, !dbg !1684
  %125 = load %"class.std::__1::__libcpp_compressed_pair_imp"*, %"class.std::__1::__libcpp_compressed_pair_imp"** %80, align 8, !dbg !1684
  %126 = bitcast %"class.std::__1::__libcpp_compressed_pair_imp"* %125 to %"class.std::__1::allocator"*, !dbg !1685
  store %"class.std::__1::allocator"* %126, %"class.std::__1::allocator"** %79, align 8, !dbg !1686
  %127 = load %"class.std::__1::allocator"*, %"class.std::__1::allocator"** %79, align 8, !dbg !1686
  %128 = getelementptr inbounds %"class.std::__1::__libcpp_compressed_pair_imp", %"class.std::__1::__libcpp_compressed_pair_imp"* %125, i32 0, i32 0, !dbg !1687
  %129 = bitcast %"struct.std::__1::basic_string<char, std::__1::char_traits<char>, std::__1::allocator<char> >::__rep"* %128 to i8*, !dbg !1687
  call void @llvm.memset.p0i8.i64(i8* %129, i8 0, i64 24, i32 8, i1 false) #8, !dbg !1687
  %130 = load i8*, i8** %84, align 8, !dbg !1688
  %131 = load i8*, i8** %84, align 8, !dbg !1689
  %132 = invoke i64 @_ZNSt3__111char_traitsIcE6lengthEPKc(i8* %131)
          to label %133 unwind label %444, !dbg !1690

; <label>:133:                                    ; preds = %0
  invoke void @_ZNSt3__112basic_stringIcNS_11char_traitsIcEENS_9allocatorIcEEE6__initEPKcm(%"class.std::__1::basic_string"* %119, i8* %130, i64 %132)
          to label %134 unwind label %444, !dbg !1691

; <label>:134:                                    ; preds = %133
  br label %135, !dbg !1692

; <label>:135:                                    ; preds = %134
  store %"class.std::__1::basic_string"* %96, %"class.std::__1::basic_string"** %74, align 8, !dbg !1693
  store i8* getelementptr inbounds ([5 x i8], [5 x i8]* @.str, i32 0, i32 0), i8** %75, align 8, !dbg !1693
  store i64 0, i64* %76, align 8, !dbg !1693
  %136 = load %"class.std::__1::basic_string"*, %"class.std::__1::basic_string"** %74, align 8, !dbg !1693
  store %"class.std::__1::basic_string"* %136, %"class.std::__1::basic_string"** %73, align 8, !dbg !1694
  %137 = load %"class.std::__1::basic_string"*, %"class.std::__1::basic_string"** %73, align 8, !dbg !1694
  store %"class.std::__1::basic_string"* %137, %"class.std::__1::basic_string"** %72, align 8, !dbg !1695
  %138 = load %"class.std::__1::basic_string"*, %"class.std::__1::basic_string"** %72, align 8, !dbg !1695
  store %"class.std::__1::basic_string"* %138, %"class.std::__1::basic_string"** %71, align 8, !dbg !1696
  %139 = load %"class.std::__1::basic_string"*, %"class.std::__1::basic_string"** %71, align 8, !dbg !1696
  %140 = getelementptr inbounds %"class.std::__1::basic_string", %"class.std::__1::basic_string"* %139, i32 0, i32 0, !dbg !1697
  store %"class.std::__1::__compressed_pair"* %140, %"class.std::__1::__compressed_pair"** %70, align 8, !dbg !1698
  %141 = load %"class.std::__1::__compressed_pair"*, %"class.std::__1::__compressed_pair"** %70, align 8, !dbg !1698
  %142 = bitcast %"class.std::__1::__compressed_pair"* %141 to %"class.std::__1::__libcpp_compressed_pair_imp"*, !dbg !1699
  store %"class.std::__1::__libcpp_compressed_pair_imp"* %142, %"class.std::__1::__libcpp_compressed_pair_imp"** %69, align 8, !dbg !1699
  %143 = load %"class.std::__1::__libcpp_compressed_pair_imp"*, %"class.std::__1::__libcpp_compressed_pair_imp"** %69, align 8, !dbg !1699
  %144 = getelementptr inbounds %"class.std::__1::__libcpp_compressed_pair_imp", %"class.std::__1::__libcpp_compressed_pair_imp"* %143, i32 0, i32 0, !dbg !1700
  %145 = getelementptr inbounds %"struct.std::__1::basic_string<char, std::__1::char_traits<char>, std::__1::allocator<char> >::__rep", %"struct.std::__1::basic_string<char, std::__1::char_traits<char>, std::__1::allocator<char> >::__rep"* %144, i32 0, i32 0, !dbg !1701
  %146 = bitcast %union.anon* %145 to %"struct.std::__1::basic_string<char, std::__1::char_traits<char>, std::__1::allocator<char> >::__short"*, !dbg !1701
  %147 = getelementptr inbounds %"struct.std::__1::basic_string<char, std::__1::char_traits<char>, std::__1::allocator<char> >::__short", %"struct.std::__1::basic_string<char, std::__1::char_traits<char>, std::__1::allocator<char> >::__short"* %146, i32 0, i32 0, !dbg !1702
  %148 = bitcast %union.anon.0* %147 to i8*, !dbg !1702
  %149 = load i8, i8* %148, align 8, !dbg !1702
  %150 = zext i8 %149 to i32, !dbg !1697
  %151 = and i32 %150, 1, !dbg !1703
  %152 = icmp ne i32 %151, 0, !dbg !1697
  br i1 %152, label %153, label %164, !dbg !1696

; <label>:153:                                    ; preds = %135
  store %"class.std::__1::basic_string"* %138, %"class.std::__1::basic_string"** %63, align 8, !dbg !1704
  %154 = load %"class.std::__1::basic_string"*, %"class.std::__1::basic_string"** %63, align 8, !dbg !1704
  %155 = getelementptr inbounds %"class.std::__1::basic_string", %"class.std::__1::basic_string"* %154, i32 0, i32 0, !dbg !1705
  store %"class.std::__1::__compressed_pair"* %155, %"class.std::__1::__compressed_pair"** %62, align 8, !dbg !1706
  %156 = load %"class.std::__1::__compressed_pair"*, %"class.std::__1::__compressed_pair"** %62, align 8, !dbg !1706
  %157 = bitcast %"class.std::__1::__compressed_pair"* %156 to %"class.std::__1::__libcpp_compressed_pair_imp"*, !dbg !1707
  store %"class.std::__1::__libcpp_compressed_pair_imp"* %157, %"class.std::__1::__libcpp_compressed_pair_imp"** %61, align 8, !dbg !1707
  %158 = load %"class.std::__1::__libcpp_compressed_pair_imp"*, %"class.std::__1::__libcpp_compressed_pair_imp"** %61, align 8, !dbg !1707
  %159 = getelementptr inbounds %"class.std::__1::__libcpp_compressed_pair_imp", %"class.std::__1::__libcpp_compressed_pair_imp"* %158, i32 0, i32 0, !dbg !1708
  %160 = getelementptr inbounds %"struct.std::__1::basic_string<char, std::__1::char_traits<char>, std::__1::allocator<char> >::__rep", %"struct.std::__1::basic_string<char, std::__1::char_traits<char>, std::__1::allocator<char> >::__rep"* %159, i32 0, i32 0, !dbg !1709
  %161 = bitcast %union.anon* %160 to %"struct.std::__1::basic_string<char, std::__1::char_traits<char>, std::__1::allocator<char> >::__long"*, !dbg !1709
  %162 = getelementptr inbounds %"struct.std::__1::basic_string<char, std::__1::char_traits<char>, std::__1::allocator<char> >::__long", %"struct.std::__1::basic_string<char, std::__1::char_traits<char>, std::__1::allocator<char> >::__long"* %161, i32 0, i32 2, !dbg !1710
  %163 = load i8*, i8** %162, align 8, !dbg !1710
  br label %177, !dbg !1696

; <label>:164:                                    ; preds = %135
  store %"class.std::__1::basic_string"* %138, %"class.std::__1::basic_string"** %68, align 8, !dbg !1711
  %165 = load %"class.std::__1::basic_string"*, %"class.std::__1::basic_string"** %68, align 8, !dbg !1711
  %166 = getelementptr inbounds %"class.std::__1::basic_string", %"class.std::__1::basic_string"* %165, i32 0, i32 0, !dbg !1712
  store %"class.std::__1::__compressed_pair"* %166, %"class.std::__1::__compressed_pair"** %67, align 8, !dbg !1713
  %167 = load %"class.std::__1::__compressed_pair"*, %"class.std::__1::__compressed_pair"** %67, align 8, !dbg !1713
  %168 = bitcast %"class.std::__1::__compressed_pair"* %167 to %"class.std::__1::__libcpp_compressed_pair_imp"*, !dbg !1714
  store %"class.std::__1::__libcpp_compressed_pair_imp"* %168, %"class.std::__1::__libcpp_compressed_pair_imp"** %66, align 8, !dbg !1714
  %169 = load %"class.std::__1::__libcpp_compressed_pair_imp"*, %"class.std::__1::__libcpp_compressed_pair_imp"** %66, align 8, !dbg !1714
  %170 = getelementptr inbounds %"class.std::__1::__libcpp_compressed_pair_imp", %"class.std::__1::__libcpp_compressed_pair_imp"* %169, i32 0, i32 0, !dbg !1715
  %171 = getelementptr inbounds %"struct.std::__1::basic_string<char, std::__1::char_traits<char>, std::__1::allocator<char> >::__rep", %"struct.std::__1::basic_string<char, std::__1::char_traits<char>, std::__1::allocator<char> >::__rep"* %170, i32 0, i32 0, !dbg !1716
  %172 = bitcast %union.anon* %171 to %"struct.std::__1::basic_string<char, std::__1::char_traits<char>, std::__1::allocator<char> >::__short"*, !dbg !1716
  %173 = getelementptr inbounds %"struct.std::__1::basic_string<char, std::__1::char_traits<char>, std::__1::allocator<char> >::__short", %"struct.std::__1::basic_string<char, std::__1::char_traits<char>, std::__1::allocator<char> >::__short"* %172, i32 0, i32 1, !dbg !1717
  %174 = getelementptr inbounds [23 x i8], [23 x i8]* %173, i64 0, i64 0, !dbg !1712
  store i8* %174, i8** %65, align 8, !dbg !1718
  %175 = load i8*, i8** %65, align 8, !dbg !1719
  store i8* %175, i8** %64, align 8, !dbg !1720
  %176 = load i8*, i8** %64, align 8, !dbg !1721
  br label %177, !dbg !1696

; <label>:177:                                    ; preds = %164, %153
  %178 = phi i8* [ %163, %153 ], [ %176, %164 ], !dbg !1696
  store i8* %178, i8** %60, align 8, !dbg !1722
  %179 = load i8*, i8** %60, align 8, !dbg !1723
  store %"class.std::__1::basic_string"* %136, %"class.std::__1::basic_string"** %49, align 8, !dbg !1724
  %180 = load %"class.std::__1::basic_string"*, %"class.std::__1::basic_string"** %49, align 8, !dbg !1724
  store %"class.std::__1::basic_string"* %180, %"class.std::__1::basic_string"** %48, align 8, !dbg !1725
  %181 = load %"class.std::__1::basic_string"*, %"class.std::__1::basic_string"** %48, align 8, !dbg !1725
  %182 = getelementptr inbounds %"class.std::__1::basic_string", %"class.std::__1::basic_string"* %181, i32 0, i32 0, !dbg !1726
  store %"class.std::__1::__compressed_pair"* %182, %"class.std::__1::__compressed_pair"** %47, align 8, !dbg !1727
  %183 = load %"class.std::__1::__compressed_pair"*, %"class.std::__1::__compressed_pair"** %47, align 8, !dbg !1727
  %184 = bitcast %"class.std::__1::__compressed_pair"* %183 to %"class.std::__1::__libcpp_compressed_pair_imp"*, !dbg !1728
  store %"class.std::__1::__libcpp_compressed_pair_imp"* %184, %"class.std::__1::__libcpp_compressed_pair_imp"** %46, align 8, !dbg !1728
  %185 = load %"class.std::__1::__libcpp_compressed_pair_imp"*, %"class.std::__1::__libcpp_compressed_pair_imp"** %46, align 8, !dbg !1728
  %186 = getelementptr inbounds %"class.std::__1::__libcpp_compressed_pair_imp", %"class.std::__1::__libcpp_compressed_pair_imp"* %185, i32 0, i32 0, !dbg !1729
  %187 = getelementptr inbounds %"struct.std::__1::basic_string<char, std::__1::char_traits<char>, std::__1::allocator<char> >::__rep", %"struct.std::__1::basic_string<char, std::__1::char_traits<char>, std::__1::allocator<char> >::__rep"* %186, i32 0, i32 0, !dbg !1730
  %188 = bitcast %union.anon* %187 to %"struct.std::__1::basic_string<char, std::__1::char_traits<char>, std::__1::allocator<char> >::__short"*, !dbg !1730
  %189 = getelementptr inbounds %"struct.std::__1::basic_string<char, std::__1::char_traits<char>, std::__1::allocator<char> >::__short", %"struct.std::__1::basic_string<char, std::__1::char_traits<char>, std::__1::allocator<char> >::__short"* %188, i32 0, i32 0, !dbg !1731
  %190 = bitcast %union.anon.0* %189 to i8*, !dbg !1731
  %191 = load i8, i8* %190, align 8, !dbg !1731
  %192 = zext i8 %191 to i32, !dbg !1726
  %193 = and i32 %192, 1, !dbg !1732
  %194 = icmp ne i32 %193, 0, !dbg !1726
  br i1 %194, label %195, label %206, !dbg !1725

; <label>:195:                                    ; preds = %177
  store %"class.std::__1::basic_string"* %180, %"class.std::__1::basic_string"** %42, align 8, !dbg !1733
  %196 = load %"class.std::__1::basic_string"*, %"class.std::__1::basic_string"** %42, align 8, !dbg !1733
  %197 = getelementptr inbounds %"class.std::__1::basic_string", %"class.std::__1::basic_string"* %196, i32 0, i32 0, !dbg !1734
  store %"class.std::__1::__compressed_pair"* %197, %"class.std::__1::__compressed_pair"** %41, align 8, !dbg !1735
  %198 = load %"class.std::__1::__compressed_pair"*, %"class.std::__1::__compressed_pair"** %41, align 8, !dbg !1735
  %199 = bitcast %"class.std::__1::__compressed_pair"* %198 to %"class.std::__1::__libcpp_compressed_pair_imp"*, !dbg !1736
  store %"class.std::__1::__libcpp_compressed_pair_imp"* %199, %"class.std::__1::__libcpp_compressed_pair_imp"** %40, align 8, !dbg !1736
  %200 = load %"class.std::__1::__libcpp_compressed_pair_imp"*, %"class.std::__1::__libcpp_compressed_pair_imp"** %40, align 8, !dbg !1736
  %201 = getelementptr inbounds %"class.std::__1::__libcpp_compressed_pair_imp", %"class.std::__1::__libcpp_compressed_pair_imp"* %200, i32 0, i32 0, !dbg !1737
  %202 = getelementptr inbounds %"struct.std::__1::basic_string<char, std::__1::char_traits<char>, std::__1::allocator<char> >::__rep", %"struct.std::__1::basic_string<char, std::__1::char_traits<char>, std::__1::allocator<char> >::__rep"* %201, i32 0, i32 0, !dbg !1738
  %203 = bitcast %union.anon* %202 to %"struct.std::__1::basic_string<char, std::__1::char_traits<char>, std::__1::allocator<char> >::__long"*, !dbg !1738
  %204 = getelementptr inbounds %"struct.std::__1::basic_string<char, std::__1::char_traits<char>, std::__1::allocator<char> >::__long", %"struct.std::__1::basic_string<char, std::__1::char_traits<char>, std::__1::allocator<char> >::__long"* %203, i32 0, i32 1, !dbg !1739
  %205 = load i64, i64* %204, align 8, !dbg !1739
  br label %221, !dbg !1725

; <label>:206:                                    ; preds = %177
  store %"class.std::__1::basic_string"* %180, %"class.std::__1::basic_string"** %45, align 8, !dbg !1740
  %207 = load %"class.std::__1::basic_string"*, %"class.std::__1::basic_string"** %45, align 8, !dbg !1740
  %208 = getelementptr inbounds %"class.std::__1::basic_string", %"class.std::__1::basic_string"* %207, i32 0, i32 0, !dbg !1741
  store %"class.std::__1::__compressed_pair"* %208, %"class.std::__1::__compressed_pair"** %44, align 8, !dbg !1742
  %209 = load %"class.std::__1::__compressed_pair"*, %"class.std::__1::__compressed_pair"** %44, align 8, !dbg !1742
  %210 = bitcast %"class.std::__1::__compressed_pair"* %209 to %"class.std::__1::__libcpp_compressed_pair_imp"*, !dbg !1743
  store %"class.std::__1::__libcpp_compressed_pair_imp"* %210, %"class.std::__1::__libcpp_compressed_pair_imp"** %43, align 8, !dbg !1743
  %211 = load %"class.std::__1::__libcpp_compressed_pair_imp"*, %"class.std::__1::__libcpp_compressed_pair_imp"** %43, align 8, !dbg !1743
  %212 = getelementptr inbounds %"class.std::__1::__libcpp_compressed_pair_imp", %"class.std::__1::__libcpp_compressed_pair_imp"* %211, i32 0, i32 0, !dbg !1744
  %213 = getelementptr inbounds %"struct.std::__1::basic_string<char, std::__1::char_traits<char>, std::__1::allocator<char> >::__rep", %"struct.std::__1::basic_string<char, std::__1::char_traits<char>, std::__1::allocator<char> >::__rep"* %212, i32 0, i32 0, !dbg !1745
  %214 = bitcast %union.anon* %213 to %"struct.std::__1::basic_string<char, std::__1::char_traits<char>, std::__1::allocator<char> >::__short"*, !dbg !1745
  %215 = getelementptr inbounds %"struct.std::__1::basic_string<char, std::__1::char_traits<char>, std::__1::allocator<char> >::__short", %"struct.std::__1::basic_string<char, std::__1::char_traits<char>, std::__1::allocator<char> >::__short"* %214, i32 0, i32 0, !dbg !1746
  %216 = bitcast %union.anon.0* %215 to i8*, !dbg !1746
  %217 = load i8, i8* %216, align 8, !dbg !1746
  %218 = zext i8 %217 to i32, !dbg !1741
  %219 = ashr i32 %218, 1, !dbg !1747
  %220 = sext i32 %219 to i64, !dbg !1741
  br label %221, !dbg !1725

; <label>:221:                                    ; preds = %206, %195
  %222 = phi i64 [ %205, %195 ], [ %220, %206 ], !dbg !1725
  %223 = load i8*, i8** %75, align 8, !dbg !1748
  %224 = load i64, i64* %76, align 8, !dbg !1749
  %225 = load i8*, i8** %75, align 8, !dbg !1750
  %226 = invoke i64 @_ZNSt3__111char_traitsIcE6lengthEPKc(i8* %225)
          to label %227 unwind label %280, !dbg !1751

; <label>:227:                                    ; preds = %221
  store i8* %179, i8** %51, align 8, !dbg !1752
  store i64 %222, i64* %52, align 8, !dbg !1752
  store i8* %223, i8** %53, align 8, !dbg !1752
  store i64 %224, i64* %54, align 8, !dbg !1752
  store i64 %226, i64* %55, align 8, !dbg !1752
  %228 = load i64, i64* %54, align 8, !dbg !1753
  %229 = load i64, i64* %52, align 8, !dbg !1755
  %230 = icmp ugt i64 %228, %229, !dbg !1756
  br i1 %230, label %237, label %231, !dbg !1757

; <label>:231:                                    ; preds = %227
  %232 = load i64, i64* %52, align 8, !dbg !1758
  %233 = load i64, i64* %54, align 8, !dbg !1759
  %234 = sub i64 %232, %233, !dbg !1760
  %235 = load i64, i64* %55, align 8, !dbg !1761
  %236 = icmp ult i64 %234, %235, !dbg !1762
  br i1 %236, label %237, label %238, !dbg !1763

; <label>:237:                                    ; preds = %231, %227
  store i64 -1, i64* %50, align 8, !dbg !1764
  br label %285, !dbg !1764

; <label>:238:                                    ; preds = %231
  %239 = load i64, i64* %55, align 8, !dbg !1765
  %240 = icmp eq i64 %239, 0, !dbg !1767
  br i1 %240, label %241, label %243, !dbg !1768

; <label>:241:                                    ; preds = %238
  %242 = load i64, i64* %54, align 8, !dbg !1769
  store i64 %242, i64* %50, align 8, !dbg !1770
  br label %285, !dbg !1770

; <label>:243:                                    ; preds = %238
  %244 = load i8*, i8** %51, align 8, !dbg !1771
  %245 = load i64, i64* %54, align 8, !dbg !1772
  %246 = getelementptr inbounds i8, i8* %244, i64 %245, !dbg !1773
  %247 = load i8*, i8** %51, align 8, !dbg !1774
  %248 = load i64, i64* %52, align 8, !dbg !1775
  %249 = getelementptr inbounds i8, i8* %247, i64 %248, !dbg !1776
  %250 = load i8*, i8** %53, align 8, !dbg !1777
  %251 = load i8*, i8** %53, align 8, !dbg !1778
  %252 = load i64, i64* %55, align 8, !dbg !1779
  %253 = getelementptr inbounds i8, i8* %251, i64 %252, !dbg !1780
  %254 = invoke { i8*, i8* } @_ZNSt3__18__searchIPFbccEPKcS4_EENS_4pairIT0_S6_EES6_S6_T1_S8_T_NS_26random_access_iterator_tagESA_(i8* %246, i8* %249, i8* %250, i8* %253, i1 (i8, i8)* @_ZNSt3__111char_traitsIcE2eqEcc)
          to label %255 unwind label %269, !dbg !1781

; <label>:255:                                    ; preds = %243
  %256 = bitcast %"struct.std::__1::pair"* %59 to { i8*, i8* }*, !dbg !1781
  %257 = getelementptr inbounds { i8*, i8* }, { i8*, i8* }* %256, i32 0, i32 0, !dbg !1781
  %258 = extractvalue { i8*, i8* } %254, 0, !dbg !1781
  store i8* %258, i8** %257, align 8, !dbg !1781
  %259 = getelementptr inbounds { i8*, i8* }, { i8*, i8* }* %256, i32 0, i32 1, !dbg !1781
  %260 = extractvalue { i8*, i8* } %254, 1, !dbg !1781
  store i8* %260, i8** %259, align 8, !dbg !1781
  %261 = getelementptr inbounds %"struct.std::__1::pair", %"struct.std::__1::pair"* %59, i32 0, i32 0, !dbg !1782
  %262 = load i8*, i8** %261, align 8, !dbg !1782
  store i8* %262, i8** %56, align 8, !dbg !1579
  %263 = load i8*, i8** %56, align 8, !dbg !1783
  %264 = load i8*, i8** %51, align 8, !dbg !1785
  %265 = load i64, i64* %52, align 8, !dbg !1786
  %266 = getelementptr inbounds i8, i8* %264, i64 %265, !dbg !1787
  %267 = icmp eq i8* %263, %266, !dbg !1788
  br i1 %267, label %268, label %274, !dbg !1789

; <label>:268:                                    ; preds = %255
  store i64 -1, i64* %50, align 8, !dbg !1790
  br label %285, !dbg !1790

; <label>:269:                                    ; preds = %243
  %270 = landingpad { i8*, i32 }
          filter [0 x i8*] zeroinitializer, !dbg !1791
  %271 = extractvalue { i8*, i32 } %270, 0, !dbg !1791
  store i8* %271, i8** %57, align 8, !dbg !1791
  %272 = extractvalue { i8*, i32 } %270, 1, !dbg !1791
  store i32 %272, i32* %58, align 4, !dbg !1791
  %273 = load i8*, i8** %57, align 8, !dbg !1791
  call void @__cxa_call_unexpected(i8* %273) #9, !dbg !1791
  unreachable, !dbg !1791

; <label>:274:                                    ; preds = %255
  %275 = load i8*, i8** %56, align 8, !dbg !1792
  %276 = load i8*, i8** %51, align 8, !dbg !1793
  %277 = ptrtoint i8* %275 to i64, !dbg !1794
  %278 = ptrtoint i8* %276 to i64, !dbg !1794
  %279 = sub i64 %277, %278, !dbg !1794
  store i64 %279, i64* %50, align 8, !dbg !1795
  br label %285, !dbg !1795

; <label>:280:                                    ; preds = %221
  %281 = landingpad { i8*, i32 }
          filter [0 x i8*] zeroinitializer, !dbg !1796
  %282 = extractvalue { i8*, i32 } %281, 0, !dbg !1796
  store i8* %282, i8** %77, align 8, !dbg !1796
  %283 = extractvalue { i8*, i32 } %281, 1, !dbg !1796
  store i32 %283, i32* %78, align 4, !dbg !1796
  %284 = load i8*, i8** %77, align 8, !dbg !1797
  call void @__cxa_call_unexpected(i8* %284) #9, !dbg !1797
  unreachable, !dbg !1797

; <label>:285:                                    ; preds = %237, %241, %268, %274
  %286 = load i64, i64* %50, align 8, !dbg !1791
  %287 = icmp ne i64 %286, -1, !dbg !1798
  br i1 %287, label %441, label %288, !dbg !1799

; <label>:288:                                    ; preds = %285
  store %"class.std::__1::basic_string"* %97, %"class.std::__1::basic_string"** %35, align 8, !dbg !1800
  store i8* getelementptr inbounds ([5 x i8], [5 x i8]* @.str, i32 0, i32 0), i8** %36, align 8, !dbg !1800
  store i64 0, i64* %37, align 8, !dbg !1800
  %289 = load %"class.std::__1::basic_string"*, %"class.std::__1::basic_string"** %35, align 8, !dbg !1800
  store %"class.std::__1::basic_string"* %289, %"class.std::__1::basic_string"** %34, align 8, !dbg !1801
  %290 = load %"class.std::__1::basic_string"*, %"class.std::__1::basic_string"** %34, align 8, !dbg !1801
  store %"class.std::__1::basic_string"* %290, %"class.std::__1::basic_string"** %33, align 8, !dbg !1802
  %291 = load %"class.std::__1::basic_string"*, %"class.std::__1::basic_string"** %33, align 8, !dbg !1802
  store %"class.std::__1::basic_string"* %291, %"class.std::__1::basic_string"** %32, align 8, !dbg !1803
  %292 = load %"class.std::__1::basic_string"*, %"class.std::__1::basic_string"** %32, align 8, !dbg !1803
  %293 = getelementptr inbounds %"class.std::__1::basic_string", %"class.std::__1::basic_string"* %292, i32 0, i32 0, !dbg !1804
  store %"class.std::__1::__compressed_pair"* %293, %"class.std::__1::__compressed_pair"** %31, align 8, !dbg !1805
  %294 = load %"class.std::__1::__compressed_pair"*, %"class.std::__1::__compressed_pair"** %31, align 8, !dbg !1805
  %295 = bitcast %"class.std::__1::__compressed_pair"* %294 to %"class.std::__1::__libcpp_compressed_pair_imp"*, !dbg !1806
  store %"class.std::__1::__libcpp_compressed_pair_imp"* %295, %"class.std::__1::__libcpp_compressed_pair_imp"** %30, align 8, !dbg !1806
  %296 = load %"class.std::__1::__libcpp_compressed_pair_imp"*, %"class.std::__1::__libcpp_compressed_pair_imp"** %30, align 8, !dbg !1806
  %297 = getelementptr inbounds %"class.std::__1::__libcpp_compressed_pair_imp", %"class.std::__1::__libcpp_compressed_pair_imp"* %296, i32 0, i32 0, !dbg !1807
  %298 = getelementptr inbounds %"struct.std::__1::basic_string<char, std::__1::char_traits<char>, std::__1::allocator<char> >::__rep", %"struct.std::__1::basic_string<char, std::__1::char_traits<char>, std::__1::allocator<char> >::__rep"* %297, i32 0, i32 0, !dbg !1808
  %299 = bitcast %union.anon* %298 to %"struct.std::__1::basic_string<char, std::__1::char_traits<char>, std::__1::allocator<char> >::__short"*, !dbg !1808
  %300 = getelementptr inbounds %"struct.std::__1::basic_string<char, std::__1::char_traits<char>, std::__1::allocator<char> >::__short", %"struct.std::__1::basic_string<char, std::__1::char_traits<char>, std::__1::allocator<char> >::__short"* %299, i32 0, i32 0, !dbg !1809
  %301 = bitcast %union.anon.0* %300 to i8*, !dbg !1809
  %302 = load i8, i8* %301, align 8, !dbg !1809
  %303 = zext i8 %302 to i32, !dbg !1804
  %304 = and i32 %303, 1, !dbg !1810
  %305 = icmp ne i32 %304, 0, !dbg !1804
  br i1 %305, label %306, label %317, !dbg !1803

; <label>:306:                                    ; preds = %288
  store %"class.std::__1::basic_string"* %291, %"class.std::__1::basic_string"** %24, align 8, !dbg !1811
  %307 = load %"class.std::__1::basic_string"*, %"class.std::__1::basic_string"** %24, align 8, !dbg !1811
  %308 = getelementptr inbounds %"class.std::__1::basic_string", %"class.std::__1::basic_string"* %307, i32 0, i32 0, !dbg !1812
  store %"class.std::__1::__compressed_pair"* %308, %"class.std::__1::__compressed_pair"** %23, align 8, !dbg !1813
  %309 = load %"class.std::__1::__compressed_pair"*, %"class.std::__1::__compressed_pair"** %23, align 8, !dbg !1813
  %310 = bitcast %"class.std::__1::__compressed_pair"* %309 to %"class.std::__1::__libcpp_compressed_pair_imp"*, !dbg !1814
  store %"class.std::__1::__libcpp_compressed_pair_imp"* %310, %"class.std::__1::__libcpp_compressed_pair_imp"** %22, align 8, !dbg !1814
  %311 = load %"class.std::__1::__libcpp_compressed_pair_imp"*, %"class.std::__1::__libcpp_compressed_pair_imp"** %22, align 8, !dbg !1814
  %312 = getelementptr inbounds %"class.std::__1::__libcpp_compressed_pair_imp", %"class.std::__1::__libcpp_compressed_pair_imp"* %311, i32 0, i32 0, !dbg !1815
  %313 = getelementptr inbounds %"struct.std::__1::basic_string<char, std::__1::char_traits<char>, std::__1::allocator<char> >::__rep", %"struct.std::__1::basic_string<char, std::__1::char_traits<char>, std::__1::allocator<char> >::__rep"* %312, i32 0, i32 0, !dbg !1816
  %314 = bitcast %union.anon* %313 to %"struct.std::__1::basic_string<char, std::__1::char_traits<char>, std::__1::allocator<char> >::__long"*, !dbg !1816
  %315 = getelementptr inbounds %"struct.std::__1::basic_string<char, std::__1::char_traits<char>, std::__1::allocator<char> >::__long", %"struct.std::__1::basic_string<char, std::__1::char_traits<char>, std::__1::allocator<char> >::__long"* %314, i32 0, i32 2, !dbg !1817
  %316 = load i8*, i8** %315, align 8, !dbg !1817
  br label %330, !dbg !1803

; <label>:317:                                    ; preds = %288
  store %"class.std::__1::basic_string"* %291, %"class.std::__1::basic_string"** %29, align 8, !dbg !1818
  %318 = load %"class.std::__1::basic_string"*, %"class.std::__1::basic_string"** %29, align 8, !dbg !1818
  %319 = getelementptr inbounds %"class.std::__1::basic_string", %"class.std::__1::basic_string"* %318, i32 0, i32 0, !dbg !1819
  store %"class.std::__1::__compressed_pair"* %319, %"class.std::__1::__compressed_pair"** %28, align 8, !dbg !1820
  %320 = load %"class.std::__1::__compressed_pair"*, %"class.std::__1::__compressed_pair"** %28, align 8, !dbg !1820
  %321 = bitcast %"class.std::__1::__compressed_pair"* %320 to %"class.std::__1::__libcpp_compressed_pair_imp"*, !dbg !1821
  store %"class.std::__1::__libcpp_compressed_pair_imp"* %321, %"class.std::__1::__libcpp_compressed_pair_imp"** %27, align 8, !dbg !1821
  %322 = load %"class.std::__1::__libcpp_compressed_pair_imp"*, %"class.std::__1::__libcpp_compressed_pair_imp"** %27, align 8, !dbg !1821
  %323 = getelementptr inbounds %"class.std::__1::__libcpp_compressed_pair_imp", %"class.std::__1::__libcpp_compressed_pair_imp"* %322, i32 0, i32 0, !dbg !1822
  %324 = getelementptr inbounds %"struct.std::__1::basic_string<char, std::__1::char_traits<char>, std::__1::allocator<char> >::__rep", %"struct.std::__1::basic_string<char, std::__1::char_traits<char>, std::__1::allocator<char> >::__rep"* %323, i32 0, i32 0, !dbg !1823
  %325 = bitcast %union.anon* %324 to %"struct.std::__1::basic_string<char, std::__1::char_traits<char>, std::__1::allocator<char> >::__short"*, !dbg !1823
  %326 = getelementptr inbounds %"struct.std::__1::basic_string<char, std::__1::char_traits<char>, std::__1::allocator<char> >::__short", %"struct.std::__1::basic_string<char, std::__1::char_traits<char>, std::__1::allocator<char> >::__short"* %325, i32 0, i32 1, !dbg !1824
  %327 = getelementptr inbounds [23 x i8], [23 x i8]* %326, i64 0, i64 0, !dbg !1819
  store i8* %327, i8** %26, align 8, !dbg !1825
  %328 = load i8*, i8** %26, align 8, !dbg !1826
  store i8* %328, i8** %25, align 8, !dbg !1827
  %329 = load i8*, i8** %25, align 8, !dbg !1828
  br label %330, !dbg !1803

; <label>:330:                                    ; preds = %317, %306
  %331 = phi i8* [ %316, %306 ], [ %329, %317 ], !dbg !1803
  store i8* %331, i8** %21, align 8, !dbg !1829
  %332 = load i8*, i8** %21, align 8, !dbg !1830
  store %"class.std::__1::basic_string"* %289, %"class.std::__1::basic_string"** %10, align 8, !dbg !1831
  %333 = load %"class.std::__1::basic_string"*, %"class.std::__1::basic_string"** %10, align 8, !dbg !1831
  store %"class.std::__1::basic_string"* %333, %"class.std::__1::basic_string"** %9, align 8, !dbg !1832
  %334 = load %"class.std::__1::basic_string"*, %"class.std::__1::basic_string"** %9, align 8, !dbg !1832
  %335 = getelementptr inbounds %"class.std::__1::basic_string", %"class.std::__1::basic_string"* %334, i32 0, i32 0, !dbg !1833
  store %"class.std::__1::__compressed_pair"* %335, %"class.std::__1::__compressed_pair"** %8, align 8, !dbg !1834
  %336 = load %"class.std::__1::__compressed_pair"*, %"class.std::__1::__compressed_pair"** %8, align 8, !dbg !1834
  %337 = bitcast %"class.std::__1::__compressed_pair"* %336 to %"class.std::__1::__libcpp_compressed_pair_imp"*, !dbg !1835
  store %"class.std::__1::__libcpp_compressed_pair_imp"* %337, %"class.std::__1::__libcpp_compressed_pair_imp"** %7, align 8, !dbg !1835
  %338 = load %"class.std::__1::__libcpp_compressed_pair_imp"*, %"class.std::__1::__libcpp_compressed_pair_imp"** %7, align 8, !dbg !1835
  %339 = getelementptr inbounds %"class.std::__1::__libcpp_compressed_pair_imp", %"class.std::__1::__libcpp_compressed_pair_imp"* %338, i32 0, i32 0, !dbg !1836
  %340 = getelementptr inbounds %"struct.std::__1::basic_string<char, std::__1::char_traits<char>, std::__1::allocator<char> >::__rep", %"struct.std::__1::basic_string<char, std::__1::char_traits<char>, std::__1::allocator<char> >::__rep"* %339, i32 0, i32 0, !dbg !1837
  %341 = bitcast %union.anon* %340 to %"struct.std::__1::basic_string<char, std::__1::char_traits<char>, std::__1::allocator<char> >::__short"*, !dbg !1837
  %342 = getelementptr inbounds %"struct.std::__1::basic_string<char, std::__1::char_traits<char>, std::__1::allocator<char> >::__short", %"struct.std::__1::basic_string<char, std::__1::char_traits<char>, std::__1::allocator<char> >::__short"* %341, i32 0, i32 0, !dbg !1838
  %343 = bitcast %union.anon.0* %342 to i8*, !dbg !1838
  %344 = load i8, i8* %343, align 8, !dbg !1838
  %345 = zext i8 %344 to i32, !dbg !1833
  %346 = and i32 %345, 1, !dbg !1839
  %347 = icmp ne i32 %346, 0, !dbg !1833
  br i1 %347, label %348, label %359, !dbg !1832

; <label>:348:                                    ; preds = %330
  store %"class.std::__1::basic_string"* %333, %"class.std::__1::basic_string"** %3, align 8, !dbg !1840
  %349 = load %"class.std::__1::basic_string"*, %"class.std::__1::basic_string"** %3, align 8, !dbg !1840
  %350 = getelementptr inbounds %"class.std::__1::basic_string", %"class.std::__1::basic_string"* %349, i32 0, i32 0, !dbg !1841
  store %"class.std::__1::__compressed_pair"* %350, %"class.std::__1::__compressed_pair"** %2, align 8, !dbg !1842
  %351 = load %"class.std::__1::__compressed_pair"*, %"class.std::__1::__compressed_pair"** %2, align 8, !dbg !1842
  %352 = bitcast %"class.std::__1::__compressed_pair"* %351 to %"class.std::__1::__libcpp_compressed_pair_imp"*, !dbg !1843
  store %"class.std::__1::__libcpp_compressed_pair_imp"* %352, %"class.std::__1::__libcpp_compressed_pair_imp"** %1, align 8, !dbg !1843
  %353 = load %"class.std::__1::__libcpp_compressed_pair_imp"*, %"class.std::__1::__libcpp_compressed_pair_imp"** %1, align 8, !dbg !1843
  %354 = getelementptr inbounds %"class.std::__1::__libcpp_compressed_pair_imp", %"class.std::__1::__libcpp_compressed_pair_imp"* %353, i32 0, i32 0, !dbg !1844
  %355 = getelementptr inbounds %"struct.std::__1::basic_string<char, std::__1::char_traits<char>, std::__1::allocator<char> >::__rep", %"struct.std::__1::basic_string<char, std::__1::char_traits<char>, std::__1::allocator<char> >::__rep"* %354, i32 0, i32 0, !dbg !1845
  %356 = bitcast %union.anon* %355 to %"struct.std::__1::basic_string<char, std::__1::char_traits<char>, std::__1::allocator<char> >::__long"*, !dbg !1845
  %357 = getelementptr inbounds %"struct.std::__1::basic_string<char, std::__1::char_traits<char>, std::__1::allocator<char> >::__long", %"struct.std::__1::basic_string<char, std::__1::char_traits<char>, std::__1::allocator<char> >::__long"* %356, i32 0, i32 1, !dbg !1846
  %358 = load i64, i64* %357, align 8, !dbg !1846
  br label %374, !dbg !1832

; <label>:359:                                    ; preds = %330
  store %"class.std::__1::basic_string"* %333, %"class.std::__1::basic_string"** %6, align 8, !dbg !1847
  %360 = load %"class.std::__1::basic_string"*, %"class.std::__1::basic_string"** %6, align 8, !dbg !1847
  %361 = getelementptr inbounds %"class.std::__1::basic_string", %"class.std::__1::basic_string"* %360, i32 0, i32 0, !dbg !1848
  store %"class.std::__1::__compressed_pair"* %361, %"class.std::__1::__compressed_pair"** %5, align 8, !dbg !1849
  %362 = load %"class.std::__1::__compressed_pair"*, %"class.std::__1::__compressed_pair"** %5, align 8, !dbg !1849
  %363 = bitcast %"class.std::__1::__compressed_pair"* %362 to %"class.std::__1::__libcpp_compressed_pair_imp"*, !dbg !1850
  store %"class.std::__1::__libcpp_compressed_pair_imp"* %363, %"class.std::__1::__libcpp_compressed_pair_imp"** %4, align 8, !dbg !1850
  %364 = load %"class.std::__1::__libcpp_compressed_pair_imp"*, %"class.std::__1::__libcpp_compressed_pair_imp"** %4, align 8, !dbg !1850
  %365 = getelementptr inbounds %"class.std::__1::__libcpp_compressed_pair_imp", %"class.std::__1::__libcpp_compressed_pair_imp"* %364, i32 0, i32 0, !dbg !1851
  %366 = getelementptr inbounds %"struct.std::__1::basic_string<char, std::__1::char_traits<char>, std::__1::allocator<char> >::__rep", %"struct.std::__1::basic_string<char, std::__1::char_traits<char>, std::__1::allocator<char> >::__rep"* %365, i32 0, i32 0, !dbg !1852
  %367 = bitcast %union.anon* %366 to %"struct.std::__1::basic_string<char, std::__1::char_traits<char>, std::__1::allocator<char> >::__short"*, !dbg !1852
  %368 = getelementptr inbounds %"struct.std::__1::basic_string<char, std::__1::char_traits<char>, std::__1::allocator<char> >::__short", %"struct.std::__1::basic_string<char, std::__1::char_traits<char>, std::__1::allocator<char> >::__short"* %367, i32 0, i32 0, !dbg !1853
  %369 = bitcast %union.anon.0* %368 to i8*, !dbg !1853
  %370 = load i8, i8* %369, align 8, !dbg !1853
  %371 = zext i8 %370 to i32, !dbg !1848
  %372 = ashr i32 %371, 1, !dbg !1854
  %373 = sext i32 %372 to i64, !dbg !1848
  br label %374, !dbg !1832

; <label>:374:                                    ; preds = %359, %348
  %375 = phi i64 [ %358, %348 ], [ %373, %359 ], !dbg !1832
  %376 = load i8*, i8** %36, align 8, !dbg !1855
  %377 = load i64, i64* %37, align 8, !dbg !1856
  %378 = load i8*, i8** %36, align 8, !dbg !1857
  %379 = invoke i64 @_ZNSt3__111char_traitsIcE6lengthEPKc(i8* %378)
          to label %380 unwind label %433, !dbg !1858

; <label>:380:                                    ; preds = %374
  store i8* %332, i8** %12, align 8, !dbg !1859
  store i64 %375, i64* %13, align 8, !dbg !1859
  store i8* %376, i8** %14, align 8, !dbg !1859
  store i64 %377, i64* %15, align 8, !dbg !1859
  store i64 %379, i64* %16, align 8, !dbg !1859
  %381 = load i64, i64* %15, align 8, !dbg !1860
  %382 = load i64, i64* %13, align 8, !dbg !1861
  %383 = icmp ugt i64 %381, %382, !dbg !1862
  br i1 %383, label %390, label %384, !dbg !1863

; <label>:384:                                    ; preds = %380
  %385 = load i64, i64* %13, align 8, !dbg !1864
  %386 = load i64, i64* %15, align 8, !dbg !1865
  %387 = sub i64 %385, %386, !dbg !1866
  %388 = load i64, i64* %16, align 8, !dbg !1867
  %389 = icmp ult i64 %387, %388, !dbg !1868
  br i1 %389, label %390, label %391, !dbg !1869

; <label>:390:                                    ; preds = %384, %380
  store i64 -1, i64* %11, align 8, !dbg !1870
  br label %438, !dbg !1870

; <label>:391:                                    ; preds = %384
  %392 = load i64, i64* %16, align 8, !dbg !1871
  %393 = icmp eq i64 %392, 0, !dbg !1872
  br i1 %393, label %394, label %396, !dbg !1873

; <label>:394:                                    ; preds = %391
  %395 = load i64, i64* %15, align 8, !dbg !1874
  store i64 %395, i64* %11, align 8, !dbg !1875
  br label %438, !dbg !1875

; <label>:396:                                    ; preds = %391
  %397 = load i8*, i8** %12, align 8, !dbg !1876
  %398 = load i64, i64* %15, align 8, !dbg !1877
  %399 = getelementptr inbounds i8, i8* %397, i64 %398, !dbg !1878
  %400 = load i8*, i8** %12, align 8, !dbg !1879
  %401 = load i64, i64* %13, align 8, !dbg !1880
  %402 = getelementptr inbounds i8, i8* %400, i64 %401, !dbg !1881
  %403 = load i8*, i8** %14, align 8, !dbg !1882
  %404 = load i8*, i8** %14, align 8, !dbg !1883
  %405 = load i64, i64* %16, align 8, !dbg !1884
  %406 = getelementptr inbounds i8, i8* %404, i64 %405, !dbg !1885
  %407 = invoke { i8*, i8* } @_ZNSt3__18__searchIPFbccEPKcS4_EENS_4pairIT0_S6_EES6_S6_T1_S8_T_NS_26random_access_iterator_tagESA_(i8* %399, i8* %402, i8* %403, i8* %406, i1 (i8, i8)* @_ZNSt3__111char_traitsIcE2eqEcc)
          to label %408 unwind label %422, !dbg !1886

; <label>:408:                                    ; preds = %396
  %409 = bitcast %"struct.std::__1::pair"* %20 to { i8*, i8* }*, !dbg !1886
  %410 = getelementptr inbounds { i8*, i8* }, { i8*, i8* }* %409, i32 0, i32 0, !dbg !1886
  %411 = extractvalue { i8*, i8* } %407, 0, !dbg !1886
  store i8* %411, i8** %410, align 8, !dbg !1886
  %412 = getelementptr inbounds { i8*, i8* }, { i8*, i8* }* %409, i32 0, i32 1, !dbg !1886
  %413 = extractvalue { i8*, i8* } %407, 1, !dbg !1886
  store i8* %413, i8** %412, align 8, !dbg !1886
  %414 = getelementptr inbounds %"struct.std::__1::pair", %"struct.std::__1::pair"* %20, i32 0, i32 0, !dbg !1887
  %415 = load i8*, i8** %414, align 8, !dbg !1887
  store i8* %415, i8** %17, align 8, !dbg !1482
  %416 = load i8*, i8** %17, align 8, !dbg !1888
  %417 = load i8*, i8** %12, align 8, !dbg !1889
  %418 = load i64, i64* %13, align 8, !dbg !1890
  %419 = getelementptr inbounds i8, i8* %417, i64 %418, !dbg !1891
  %420 = icmp eq i8* %416, %419, !dbg !1892
  br i1 %420, label %421, label %427, !dbg !1893

; <label>:421:                                    ; preds = %408
  store i64 -1, i64* %11, align 8, !dbg !1894
  br label %438, !dbg !1894

; <label>:422:                                    ; preds = %396
  %423 = landingpad { i8*, i32 }
          filter [0 x i8*] zeroinitializer, !dbg !1895
  %424 = extractvalue { i8*, i32 } %423, 0, !dbg !1895
  store i8* %424, i8** %18, align 8, !dbg !1895
  %425 = extractvalue { i8*, i32 } %423, 1, !dbg !1895
  store i32 %425, i32* %19, align 4, !dbg !1895
  %426 = load i8*, i8** %18, align 8, !dbg !1895
  call void @__cxa_call_unexpected(i8* %426) #9, !dbg !1895
  unreachable, !dbg !1895

; <label>:427:                                    ; preds = %408
  %428 = load i8*, i8** %17, align 8, !dbg !1896
  %429 = load i8*, i8** %12, align 8, !dbg !1897
  %430 = ptrtoint i8* %428 to i64, !dbg !1898
  %431 = ptrtoint i8* %429 to i64, !dbg !1898
  %432 = sub i64 %430, %431, !dbg !1898
  store i64 %432, i64* %11, align 8, !dbg !1899
  br label %438, !dbg !1899

; <label>:433:                                    ; preds = %374
  %434 = landingpad { i8*, i32 }
          filter [0 x i8*] zeroinitializer, !dbg !1900
  %435 = extractvalue { i8*, i32 } %434, 0, !dbg !1900
  store i8* %435, i8** %38, align 8, !dbg !1900
  %436 = extractvalue { i8*, i32 } %434, 1, !dbg !1900
  store i32 %436, i32* %39, align 4, !dbg !1900
  %437 = load i8*, i8** %38, align 8, !dbg !1901
  call void @__cxa_call_unexpected(i8* %437) #9, !dbg !1901
  unreachable, !dbg !1901

; <label>:438:                                    ; preds = %390, %394, %421, %427
  %439 = load i64, i64* %11, align 8, !dbg !1895
  %440 = icmp ne i64 %439, -1, !dbg !1902
  br i1 %440, label %441, label %452, !dbg !1903

; <label>:441:                                    ; preds = %438, %285
  %442 = invoke i32 (i8*, ...) @printf(i8* getelementptr inbounds ([13 x i8], [13 x i8]* @.str.2, i32 0, i32 0))
          to label %443 unwind label %448, !dbg !1904

; <label>:443:                                    ; preds = %441
  store i1 true, i1* %95, align 1, !dbg !1906
  store i32 1, i32* %100, align 4
  br label %455, !dbg !1906

; <label>:444:                                    ; preds = %133, %0, %455
  %445 = landingpad { i8*, i32 }
          cleanup, !dbg !1907
  %446 = extractvalue { i8*, i32 } %445, 0, !dbg !1907
  store i8* %446, i8** %98, align 8, !dbg !1907
  %447 = extractvalue { i8*, i32 } %445, 1, !dbg !1907
  store i32 %447, i32* %99, align 4, !dbg !1907
  br label %459, !dbg !1907

; <label>:448:                                    ; preds = %452, %441
  %449 = landingpad { i8*, i32 }
          cleanup, !dbg !1908
  %450 = extractvalue { i8*, i32 } %449, 0, !dbg !1908
  store i8* %450, i8** %98, align 8, !dbg !1908
  %451 = extractvalue { i8*, i32 } %449, 1, !dbg !1908
  store i32 %451, i32* %99, align 4, !dbg !1908
  invoke void @_ZNSt3__112basic_stringIcNS_11char_traitsIcEENS_9allocatorIcEEED1Ev(%"class.std::__1::basic_string"* %97)
          to label %458 unwind label %466, !dbg !1907

; <label>:452:                                    ; preds = %438
  %453 = invoke i32 (i8*, ...) @printf(i8* getelementptr inbounds ([14 x i8], [14 x i8]* @.str.3, i32 0, i32 0))
          to label %454 unwind label %448, !dbg !1909

; <label>:454:                                    ; preds = %452
  store i1 false, i1* %95, align 1, !dbg !1911
  store i32 1, i32* %100, align 4
  br label %455, !dbg !1911

; <label>:455:                                    ; preds = %454, %443
  invoke void @_ZNSt3__112basic_stringIcNS_11char_traitsIcEENS_9allocatorIcEEED1Ev(%"class.std::__1::basic_string"* %97)
          to label %456 unwind label %444, !dbg !1907

; <label>:456:                                    ; preds = %455
  call void @_ZNSt3__112basic_stringIcNS_11char_traitsIcEENS_9allocatorIcEEED1Ev(%"class.std::__1::basic_string"* %96), !dbg !1907
  %457 = load i1, i1* %95, align 1, !dbg !1907
  ret i1 %457, !dbg !1907

; <label>:458:                                    ; preds = %448
  br label %459, !dbg !1907

; <label>:459:                                    ; preds = %458, %444
  invoke void @_ZNSt3__112basic_stringIcNS_11char_traitsIcEENS_9allocatorIcEEED1Ev(%"class.std::__1::basic_string"* %96)
          to label %460 unwind label %466, !dbg !1907

; <label>:460:                                    ; preds = %459
  br label %461, !dbg !1907

; <label>:461:                                    ; preds = %460
  %462 = load i8*, i8** %98, align 8, !dbg !1907
  %463 = load i32, i32* %99, align 4, !dbg !1907
  %464 = insertvalue { i8*, i32 } undef, i8* %462, 0, !dbg !1907
  %465 = insertvalue { i8*, i32 } %464, i32 %463, 1, !dbg !1907
  resume { i8*, i32 } %465, !dbg !1907

; <label>:466:                                    ; preds = %459, %448
  %467 = landingpad { i8*, i32 }
          catch i8* null, !dbg !1907
  %468 = extractvalue { i8*, i32 } %467, 0, !dbg !1907
  call void @__clang_call_terminate(i8* %468) #9, !dbg !1907
  unreachable, !dbg !1907
}

; Function Attrs: nounwind readnone
declare void @llvm.dbg.declare(metadata, metadata, metadata) #1

declare i32 @__gxx_personality_v0(...)

declare i32 @printf(i8*, ...) #2

declare void @_ZNSt3__112basic_stringIcNS_11char_traitsIcEENS_9allocatorIcEEED1Ev(%"class.std::__1::basic_string"*) unnamed_addr #2

; Function Attrs: noinline noreturn nounwind
define linkonce_odr hidden void @__clang_call_terminate(i8*) #3 {
  %2 = call i8* @__cxa_begin_catch(i8* %0) #8
  call void @_ZSt9terminatev() #9
  unreachable
}

declare i8* @__cxa_begin_catch(i8*)

declare void @_ZSt9terminatev()

; Function Attrs: ssp uwtable
define zeroext i1 @_Z36testee_OR_operator_with_CPP_PHI_casev() #0 personality i8* bitcast (i32 (...)* @__gxx_personality_v0 to i8*) !dbg !1912 {
  %1 = alloca %"class.std::__1::__libcpp_compressed_pair_imp"*, align 8
  call void @llvm.dbg.declare(metadata %"class.std::__1::__libcpp_compressed_pair_imp"** %1, metadata !1425, metadata !1428), !dbg !1913
  %2 = alloca %"class.std::__1::__compressed_pair"*, align 8
  call void @llvm.dbg.declare(metadata %"class.std::__1::__compressed_pair"** %2, metadata !1440, metadata !1428), !dbg !1920
  %3 = alloca %"class.std::__1::basic_string"*, align 8
  call void @llvm.dbg.declare(metadata %"class.std::__1::basic_string"** %3, metadata !1443, metadata !1428), !dbg !1921
  %4 = alloca %"class.std::__1::__libcpp_compressed_pair_imp"*, align 8
  call void @llvm.dbg.declare(metadata %"class.std::__1::__libcpp_compressed_pair_imp"** %4, metadata !1425, metadata !1428), !dbg !1922
  %5 = alloca %"class.std::__1::__compressed_pair"*, align 8
  call void @llvm.dbg.declare(metadata %"class.std::__1::__compressed_pair"** %5, metadata !1440, metadata !1428), !dbg !1926
  %6 = alloca %"class.std::__1::basic_string"*, align 8
  call void @llvm.dbg.declare(metadata %"class.std::__1::basic_string"** %6, metadata !1452, metadata !1428), !dbg !1927
  %7 = alloca %"class.std::__1::__libcpp_compressed_pair_imp"*, align 8
  call void @llvm.dbg.declare(metadata %"class.std::__1::__libcpp_compressed_pair_imp"** %7, metadata !1425, metadata !1428), !dbg !1928
  %8 = alloca %"class.std::__1::__compressed_pair"*, align 8
  call void @llvm.dbg.declare(metadata %"class.std::__1::__compressed_pair"** %8, metadata !1440, metadata !1428), !dbg !1932
  %9 = alloca %"class.std::__1::basic_string"*, align 8
  call void @llvm.dbg.declare(metadata %"class.std::__1::basic_string"** %9, metadata !1460, metadata !1428), !dbg !1933
  %10 = alloca %"class.std::__1::basic_string"*, align 8
  call void @llvm.dbg.declare(metadata %"class.std::__1::basic_string"** %10, metadata !1462, metadata !1428), !dbg !1934
  %11 = alloca i64, align 8
  %12 = alloca i8*, align 8
  call void @llvm.dbg.declare(metadata i8** %12, metadata !1464, metadata !1428), !dbg !1935
  %13 = alloca i64, align 8
  call void @llvm.dbg.declare(metadata i64* %13, metadata !1473, metadata !1428), !dbg !1937
  %14 = alloca i8*, align 8
  call void @llvm.dbg.declare(metadata i8** %14, metadata !1475, metadata !1428), !dbg !1938
  %15 = alloca i64, align 8
  call void @llvm.dbg.declare(metadata i64* %15, metadata !1477, metadata !1428), !dbg !1939
  %16 = alloca i64, align 8
  call void @llvm.dbg.declare(metadata i64* %16, metadata !1479, metadata !1428), !dbg !1940
  %17 = alloca i8*, align 8
  call void @llvm.dbg.declare(metadata i8** %17, metadata !1481, metadata !1428), !dbg !1941
  %18 = alloca i8*
  %19 = alloca i32
  %20 = alloca %"struct.std::__1::pair", align 8
  %21 = alloca i8*, align 8
  call void @llvm.dbg.declare(metadata i8** %21, metadata !1483, metadata !1428), !dbg !1942
  %22 = alloca %"class.std::__1::__libcpp_compressed_pair_imp"*, align 8
  call void @llvm.dbg.declare(metadata %"class.std::__1::__libcpp_compressed_pair_imp"** %22, metadata !1425, metadata !1428), !dbg !1945
  %23 = alloca %"class.std::__1::__compressed_pair"*, align 8
  call void @llvm.dbg.declare(metadata %"class.std::__1::__compressed_pair"** %23, metadata !1440, metadata !1428), !dbg !1950
  %24 = alloca %"class.std::__1::basic_string"*, align 8
  call void @llvm.dbg.declare(metadata %"class.std::__1::basic_string"** %24, metadata !1501, metadata !1428), !dbg !1951
  %25 = alloca i8*, align 8
  call void @llvm.dbg.declare(metadata i8** %25, metadata !1503, metadata !1428), !dbg !1952
  %26 = alloca i8*, align 8
  call void @llvm.dbg.declare(metadata i8** %26, metadata !1528, metadata !1428), !dbg !1956
  %27 = alloca %"class.std::__1::__libcpp_compressed_pair_imp"*, align 8
  call void @llvm.dbg.declare(metadata %"class.std::__1::__libcpp_compressed_pair_imp"** %27, metadata !1425, metadata !1428), !dbg !1957
  %28 = alloca %"class.std::__1::__compressed_pair"*, align 8
  call void @llvm.dbg.declare(metadata %"class.std::__1::__compressed_pair"** %28, metadata !1440, metadata !1428), !dbg !1960
  %29 = alloca %"class.std::__1::basic_string"*, align 8
  call void @llvm.dbg.declare(metadata %"class.std::__1::basic_string"** %29, metadata !1534, metadata !1428), !dbg !1961
  %30 = alloca %"class.std::__1::__libcpp_compressed_pair_imp"*, align 8
  call void @llvm.dbg.declare(metadata %"class.std::__1::__libcpp_compressed_pair_imp"** %30, metadata !1425, metadata !1428), !dbg !1962
  %31 = alloca %"class.std::__1::__compressed_pair"*, align 8
  call void @llvm.dbg.declare(metadata %"class.std::__1::__compressed_pair"** %31, metadata !1440, metadata !1428), !dbg !1966
  %32 = alloca %"class.std::__1::basic_string"*, align 8
  call void @llvm.dbg.declare(metadata %"class.std::__1::basic_string"** %32, metadata !1460, metadata !1428), !dbg !1967
  %33 = alloca %"class.std::__1::basic_string"*, align 8
  call void @llvm.dbg.declare(metadata %"class.std::__1::basic_string"** %33, metadata !1542, metadata !1428), !dbg !1968
  %34 = alloca %"class.std::__1::basic_string"*, align 8
  call void @llvm.dbg.declare(metadata %"class.std::__1::basic_string"** %34, metadata !1544, metadata !1428), !dbg !1969
  %35 = alloca %"class.std::__1::basic_string"*, align 8
  call void @llvm.dbg.declare(metadata %"class.std::__1::basic_string"** %35, metadata !1546, metadata !1428), !dbg !1970
  %36 = alloca i8*, align 8
  call void @llvm.dbg.declare(metadata i8** %36, metadata !1548, metadata !1428), !dbg !1971
  %37 = alloca i64, align 8
  call void @llvm.dbg.declare(metadata i64* %37, metadata !1550, metadata !1428), !dbg !1972
  %38 = alloca i8*
  %39 = alloca i32
  %40 = alloca %"class.std::__1::__libcpp_compressed_pair_imp"*, align 8
  call void @llvm.dbg.declare(metadata %"class.std::__1::__libcpp_compressed_pair_imp"** %40, metadata !1425, metadata !1428), !dbg !1973
  %41 = alloca %"class.std::__1::__compressed_pair"*, align 8
  call void @llvm.dbg.declare(metadata %"class.std::__1::__compressed_pair"** %41, metadata !1440, metadata !1428), !dbg !1979
  %42 = alloca %"class.std::__1::basic_string"*, align 8
  call void @llvm.dbg.declare(metadata %"class.std::__1::basic_string"** %42, metadata !1443, metadata !1428), !dbg !1980
  %43 = alloca %"class.std::__1::__libcpp_compressed_pair_imp"*, align 8
  call void @llvm.dbg.declare(metadata %"class.std::__1::__libcpp_compressed_pair_imp"** %43, metadata !1425, metadata !1428), !dbg !1981
  %44 = alloca %"class.std::__1::__compressed_pair"*, align 8
  call void @llvm.dbg.declare(metadata %"class.std::__1::__compressed_pair"** %44, metadata !1440, metadata !1428), !dbg !1985
  %45 = alloca %"class.std::__1::basic_string"*, align 8
  call void @llvm.dbg.declare(metadata %"class.std::__1::basic_string"** %45, metadata !1452, metadata !1428), !dbg !1986
  %46 = alloca %"class.std::__1::__libcpp_compressed_pair_imp"*, align 8
  call void @llvm.dbg.declare(metadata %"class.std::__1::__libcpp_compressed_pair_imp"** %46, metadata !1425, metadata !1428), !dbg !1987
  %47 = alloca %"class.std::__1::__compressed_pair"*, align 8
  call void @llvm.dbg.declare(metadata %"class.std::__1::__compressed_pair"** %47, metadata !1440, metadata !1428), !dbg !1991
  %48 = alloca %"class.std::__1::basic_string"*, align 8
  call void @llvm.dbg.declare(metadata %"class.std::__1::basic_string"** %48, metadata !1460, metadata !1428), !dbg !1992
  %49 = alloca %"class.std::__1::basic_string"*, align 8
  call void @llvm.dbg.declare(metadata %"class.std::__1::basic_string"** %49, metadata !1462, metadata !1428), !dbg !1993
  %50 = alloca i64, align 8
  %51 = alloca i8*, align 8
  call void @llvm.dbg.declare(metadata i8** %51, metadata !1464, metadata !1428), !dbg !1994
  %52 = alloca i64, align 8
  call void @llvm.dbg.declare(metadata i64* %52, metadata !1473, metadata !1428), !dbg !1996
  %53 = alloca i8*, align 8
  call void @llvm.dbg.declare(metadata i8** %53, metadata !1475, metadata !1428), !dbg !1997
  %54 = alloca i64, align 8
  call void @llvm.dbg.declare(metadata i64* %54, metadata !1477, metadata !1428), !dbg !1998
  %55 = alloca i64, align 8
  call void @llvm.dbg.declare(metadata i64* %55, metadata !1479, metadata !1428), !dbg !1999
  %56 = alloca i8*, align 8
  call void @llvm.dbg.declare(metadata i8** %56, metadata !1481, metadata !1428), !dbg !2000
  %57 = alloca i8*
  %58 = alloca i32
  %59 = alloca %"struct.std::__1::pair", align 8
  %60 = alloca i8*, align 8
  call void @llvm.dbg.declare(metadata i8** %60, metadata !1483, metadata !1428), !dbg !2001
  %61 = alloca %"class.std::__1::__libcpp_compressed_pair_imp"*, align 8
  call void @llvm.dbg.declare(metadata %"class.std::__1::__libcpp_compressed_pair_imp"** %61, metadata !1425, metadata !1428), !dbg !2004
  %62 = alloca %"class.std::__1::__compressed_pair"*, align 8
  call void @llvm.dbg.declare(metadata %"class.std::__1::__compressed_pair"** %62, metadata !1440, metadata !1428), !dbg !2009
  %63 = alloca %"class.std::__1::basic_string"*, align 8
  call void @llvm.dbg.declare(metadata %"class.std::__1::basic_string"** %63, metadata !1501, metadata !1428), !dbg !2010
  %64 = alloca i8*, align 8
  call void @llvm.dbg.declare(metadata i8** %64, metadata !1503, metadata !1428), !dbg !2011
  %65 = alloca i8*, align 8
  call void @llvm.dbg.declare(metadata i8** %65, metadata !1528, metadata !1428), !dbg !2015
  %66 = alloca %"class.std::__1::__libcpp_compressed_pair_imp"*, align 8
  call void @llvm.dbg.declare(metadata %"class.std::__1::__libcpp_compressed_pair_imp"** %66, metadata !1425, metadata !1428), !dbg !2016
  %67 = alloca %"class.std::__1::__compressed_pair"*, align 8
  call void @llvm.dbg.declare(metadata %"class.std::__1::__compressed_pair"** %67, metadata !1440, metadata !1428), !dbg !2019
  %68 = alloca %"class.std::__1::basic_string"*, align 8
  call void @llvm.dbg.declare(metadata %"class.std::__1::basic_string"** %68, metadata !1534, metadata !1428), !dbg !2020
  %69 = alloca %"class.std::__1::__libcpp_compressed_pair_imp"*, align 8
  call void @llvm.dbg.declare(metadata %"class.std::__1::__libcpp_compressed_pair_imp"** %69, metadata !1425, metadata !1428), !dbg !2021
  %70 = alloca %"class.std::__1::__compressed_pair"*, align 8
  call void @llvm.dbg.declare(metadata %"class.std::__1::__compressed_pair"** %70, metadata !1440, metadata !1428), !dbg !2025
  %71 = alloca %"class.std::__1::basic_string"*, align 8
  call void @llvm.dbg.declare(metadata %"class.std::__1::basic_string"** %71, metadata !1460, metadata !1428), !dbg !2026
  %72 = alloca %"class.std::__1::basic_string"*, align 8
  call void @llvm.dbg.declare(metadata %"class.std::__1::basic_string"** %72, metadata !1542, metadata !1428), !dbg !2027
  %73 = alloca %"class.std::__1::basic_string"*, align 8
  call void @llvm.dbg.declare(metadata %"class.std::__1::basic_string"** %73, metadata !1544, metadata !1428), !dbg !2028
  %74 = alloca %"class.std::__1::basic_string"*, align 8
  call void @llvm.dbg.declare(metadata %"class.std::__1::basic_string"** %74, metadata !1546, metadata !1428), !dbg !2029
  %75 = alloca i8*, align 8
  call void @llvm.dbg.declare(metadata i8** %75, metadata !1548, metadata !1428), !dbg !2030
  %76 = alloca i64, align 8
  call void @llvm.dbg.declare(metadata i64* %76, metadata !1550, metadata !1428), !dbg !2031
  %77 = alloca i8*
  %78 = alloca i32
  %79 = alloca %"class.std::__1::allocator"*, align 8
  call void @llvm.dbg.declare(metadata %"class.std::__1::allocator"** %79, metadata !1611, metadata !1428), !dbg !2032
  %80 = alloca %"class.std::__1::__libcpp_compressed_pair_imp"*, align 8
  call void @llvm.dbg.declare(metadata %"class.std::__1::__libcpp_compressed_pair_imp"** %80, metadata !1626, metadata !1428), !dbg !2039
  %81 = alloca %"class.std::__1::__compressed_pair"*, align 8
  call void @llvm.dbg.declare(metadata %"class.std::__1::__compressed_pair"** %81, metadata !1629, metadata !1428), !dbg !2040
  %82 = alloca %"class.std::__1::__compressed_pair"*, align 8
  call void @llvm.dbg.declare(metadata %"class.std::__1::__compressed_pair"** %82, metadata !1632, metadata !1428), !dbg !2041
  %83 = alloca %"class.std::__1::basic_string"*, align 8
  call void @llvm.dbg.declare(metadata %"class.std::__1::basic_string"** %83, metadata !1634, metadata !1428), !dbg !2042
  %84 = alloca i8*, align 8
  call void @llvm.dbg.declare(metadata i8** %84, metadata !1637, metadata !1428), !dbg !2043
  %85 = alloca %"class.std::__1::basic_string"*, align 8
  call void @llvm.dbg.declare(metadata %"class.std::__1::basic_string"** %85, metadata !1639, metadata !1428), !dbg !2044
  %86 = alloca i8*, align 8
  call void @llvm.dbg.declare(metadata i8** %86, metadata !1641, metadata !1428), !dbg !2045
  %87 = alloca %"class.std::__1::allocator"*, align 8
  call void @llvm.dbg.declare(metadata %"class.std::__1::allocator"** %87, metadata !1611, metadata !1428), !dbg !2046
  %88 = alloca %"class.std::__1::__libcpp_compressed_pair_imp"*, align 8
  call void @llvm.dbg.declare(metadata %"class.std::__1::__libcpp_compressed_pair_imp"** %88, metadata !1626, metadata !1428), !dbg !2053
  %89 = alloca %"class.std::__1::__compressed_pair"*, align 8
  call void @llvm.dbg.declare(metadata %"class.std::__1::__compressed_pair"** %89, metadata !1629, metadata !1428), !dbg !2054
  %90 = alloca %"class.std::__1::__compressed_pair"*, align 8
  call void @llvm.dbg.declare(metadata %"class.std::__1::__compressed_pair"** %90, metadata !1632, metadata !1428), !dbg !2055
  %91 = alloca %"class.std::__1::basic_string"*, align 8
  call void @llvm.dbg.declare(metadata %"class.std::__1::basic_string"** %91, metadata !1634, metadata !1428), !dbg !2056
  %92 = alloca i8*, align 8
  call void @llvm.dbg.declare(metadata i8** %92, metadata !1637, metadata !1428), !dbg !2057
  %93 = alloca %"class.std::__1::basic_string"*, align 8
  call void @llvm.dbg.declare(metadata %"class.std::__1::basic_string"** %93, metadata !1639, metadata !1428), !dbg !2058
  %94 = alloca i8*, align 8
  call void @llvm.dbg.declare(metadata i8** %94, metadata !1641, metadata !1428), !dbg !2059
  %95 = alloca %"class.std::__1::basic_string", align 8
  %96 = alloca %"class.std::__1::basic_string", align 8
  %97 = alloca i8*
  %98 = alloca i32
  %99 = alloca i8, align 1
  call void @llvm.dbg.declare(metadata %"class.std::__1::basic_string"* %95, metadata !2060, metadata !1428), !dbg !2061
  store %"class.std::__1::basic_string"* %95, %"class.std::__1::basic_string"** %93, align 8, !dbg !2062
  store i8* getelementptr inbounds ([5 x i8], [5 x i8]* @.str, i32 0, i32 0), i8** %94, align 8, !dbg !2062
  %100 = load %"class.std::__1::basic_string"*, %"class.std::__1::basic_string"** %93, align 8, !dbg !2062
  %101 = load i8*, i8** %94, align 8, !dbg !2063
  store %"class.std::__1::basic_string"* %100, %"class.std::__1::basic_string"** %91, align 8, !dbg !2063
  store i8* %101, i8** %92, align 8, !dbg !2063
  %102 = load %"class.std::__1::basic_string"*, %"class.std::__1::basic_string"** %91, align 8, !dbg !2063
  %103 = bitcast %"class.std::__1::basic_string"* %102 to %"class.std::__1::__basic_string_common"*, !dbg !2064
  %104 = getelementptr inbounds %"class.std::__1::basic_string", %"class.std::__1::basic_string"* %102, i32 0, i32 0, !dbg !2065
  store %"class.std::__1::__compressed_pair"* %104, %"class.std::__1::__compressed_pair"** %90, align 8, !dbg !2065
  %105 = load %"class.std::__1::__compressed_pair"*, %"class.std::__1::__compressed_pair"** %90, align 8, !dbg !2065
  store %"class.std::__1::__compressed_pair"* %105, %"class.std::__1::__compressed_pair"** %89, align 8, !dbg !2066
  %106 = load %"class.std::__1::__compressed_pair"*, %"class.std::__1::__compressed_pair"** %89, align 8, !dbg !2066
  %107 = bitcast %"class.std::__1::__compressed_pair"* %106 to %"class.std::__1::__libcpp_compressed_pair_imp"*, !dbg !2067
  store %"class.std::__1::__libcpp_compressed_pair_imp"* %107, %"class.std::__1::__libcpp_compressed_pair_imp"** %88, align 8, !dbg !2068
  %108 = load %"class.std::__1::__libcpp_compressed_pair_imp"*, %"class.std::__1::__libcpp_compressed_pair_imp"** %88, align 8, !dbg !2068
  %109 = bitcast %"class.std::__1::__libcpp_compressed_pair_imp"* %108 to %"class.std::__1::allocator"*, !dbg !2069
  store %"class.std::__1::allocator"* %109, %"class.std::__1::allocator"** %87, align 8, !dbg !2070
  %110 = load %"class.std::__1::allocator"*, %"class.std::__1::allocator"** %87, align 8, !dbg !2070
  %111 = getelementptr inbounds %"class.std::__1::__libcpp_compressed_pair_imp", %"class.std::__1::__libcpp_compressed_pair_imp"* %108, i32 0, i32 0, !dbg !2071
  %112 = bitcast %"struct.std::__1::basic_string<char, std::__1::char_traits<char>, std::__1::allocator<char> >::__rep"* %111 to i8*, !dbg !2071
  call void @llvm.memset.p0i8.i64(i8* %112, i8 0, i64 24, i32 8, i1 false) #8, !dbg !2071
  %113 = load i8*, i8** %92, align 8, !dbg !2072
  %114 = load i8*, i8** %92, align 8, !dbg !2073
  %115 = call i64 @_ZNSt3__111char_traitsIcE6lengthEPKc(i8* %114), !dbg !2074
  call void @_ZNSt3__112basic_stringIcNS_11char_traitsIcEENS_9allocatorIcEEE6__initEPKcm(%"class.std::__1::basic_string"* %102, i8* %113, i64 %115), !dbg !2075
  call void @llvm.dbg.declare(metadata %"class.std::__1::basic_string"* %96, metadata !2076, metadata !1428), !dbg !2077
  store %"class.std::__1::basic_string"* %96, %"class.std::__1::basic_string"** %85, align 8, !dbg !2078
  store i8* getelementptr inbounds ([5 x i8], [5 x i8]* @.str.1, i32 0, i32 0), i8** %86, align 8, !dbg !2078
  %116 = load %"class.std::__1::basic_string"*, %"class.std::__1::basic_string"** %85, align 8, !dbg !2078
  %117 = load i8*, i8** %86, align 8, !dbg !2079
  store %"class.std::__1::basic_string"* %116, %"class.std::__1::basic_string"** %83, align 8, !dbg !2079
  store i8* %117, i8** %84, align 8, !dbg !2079
  %118 = load %"class.std::__1::basic_string"*, %"class.std::__1::basic_string"** %83, align 8, !dbg !2079
  %119 = bitcast %"class.std::__1::basic_string"* %118 to %"class.std::__1::__basic_string_common"*, !dbg !2080
  %120 = getelementptr inbounds %"class.std::__1::basic_string", %"class.std::__1::basic_string"* %118, i32 0, i32 0, !dbg !2081
  store %"class.std::__1::__compressed_pair"* %120, %"class.std::__1::__compressed_pair"** %82, align 8, !dbg !2081
  %121 = load %"class.std::__1::__compressed_pair"*, %"class.std::__1::__compressed_pair"** %82, align 8, !dbg !2081
  store %"class.std::__1::__compressed_pair"* %121, %"class.std::__1::__compressed_pair"** %81, align 8, !dbg !2082
  %122 = load %"class.std::__1::__compressed_pair"*, %"class.std::__1::__compressed_pair"** %81, align 8, !dbg !2082
  %123 = bitcast %"class.std::__1::__compressed_pair"* %122 to %"class.std::__1::__libcpp_compressed_pair_imp"*, !dbg !2083
  store %"class.std::__1::__libcpp_compressed_pair_imp"* %123, %"class.std::__1::__libcpp_compressed_pair_imp"** %80, align 8, !dbg !2084
  %124 = load %"class.std::__1::__libcpp_compressed_pair_imp"*, %"class.std::__1::__libcpp_compressed_pair_imp"** %80, align 8, !dbg !2084
  %125 = bitcast %"class.std::__1::__libcpp_compressed_pair_imp"* %124 to %"class.std::__1::allocator"*, !dbg !2085
  store %"class.std::__1::allocator"* %125, %"class.std::__1::allocator"** %79, align 8, !dbg !2086
  %126 = load %"class.std::__1::allocator"*, %"class.std::__1::allocator"** %79, align 8, !dbg !2086
  %127 = getelementptr inbounds %"class.std::__1::__libcpp_compressed_pair_imp", %"class.std::__1::__libcpp_compressed_pair_imp"* %124, i32 0, i32 0, !dbg !2087
  %128 = bitcast %"struct.std::__1::basic_string<char, std::__1::char_traits<char>, std::__1::allocator<char> >::__rep"* %127 to i8*, !dbg !2087
  call void @llvm.memset.p0i8.i64(i8* %128, i8 0, i64 24, i32 8, i1 false) #8, !dbg !2087
  %129 = load i8*, i8** %84, align 8, !dbg !2088
  %130 = load i8*, i8** %84, align 8, !dbg !2089
  %131 = invoke i64 @_ZNSt3__111char_traitsIcE6lengthEPKc(i8* %130)
          to label %132 unwind label %443, !dbg !2090

; <label>:132:                                    ; preds = %0
  invoke void @_ZNSt3__112basic_stringIcNS_11char_traitsIcEENS_9allocatorIcEEE6__initEPKcm(%"class.std::__1::basic_string"* %118, i8* %129, i64 %131)
          to label %133 unwind label %443, !dbg !2091

; <label>:133:                                    ; preds = %132
  br label %134, !dbg !2092

; <label>:134:                                    ; preds = %133
  call void @llvm.dbg.declare(metadata i8* %99, metadata !2093, metadata !1428), !dbg !2094
  store i8 0, i8* %99, align 1, !dbg !2094
  store %"class.std::__1::basic_string"* %95, %"class.std::__1::basic_string"** %74, align 8, !dbg !2095
  store i8* getelementptr inbounds ([5 x i8], [5 x i8]* @.str, i32 0, i32 0), i8** %75, align 8, !dbg !2095
  store i64 0, i64* %76, align 8, !dbg !2095
  %135 = load %"class.std::__1::basic_string"*, %"class.std::__1::basic_string"** %74, align 8, !dbg !2095
  store %"class.std::__1::basic_string"* %135, %"class.std::__1::basic_string"** %73, align 8, !dbg !2096
  %136 = load %"class.std::__1::basic_string"*, %"class.std::__1::basic_string"** %73, align 8, !dbg !2096
  store %"class.std::__1::basic_string"* %136, %"class.std::__1::basic_string"** %72, align 8, !dbg !2097
  %137 = load %"class.std::__1::basic_string"*, %"class.std::__1::basic_string"** %72, align 8, !dbg !2097
  store %"class.std::__1::basic_string"* %137, %"class.std::__1::basic_string"** %71, align 8, !dbg !2098
  %138 = load %"class.std::__1::basic_string"*, %"class.std::__1::basic_string"** %71, align 8, !dbg !2098
  %139 = getelementptr inbounds %"class.std::__1::basic_string", %"class.std::__1::basic_string"* %138, i32 0, i32 0, !dbg !2099
  store %"class.std::__1::__compressed_pair"* %139, %"class.std::__1::__compressed_pair"** %70, align 8, !dbg !2100
  %140 = load %"class.std::__1::__compressed_pair"*, %"class.std::__1::__compressed_pair"** %70, align 8, !dbg !2100
  %141 = bitcast %"class.std::__1::__compressed_pair"* %140 to %"class.std::__1::__libcpp_compressed_pair_imp"*, !dbg !2101
  store %"class.std::__1::__libcpp_compressed_pair_imp"* %141, %"class.std::__1::__libcpp_compressed_pair_imp"** %69, align 8, !dbg !2101
  %142 = load %"class.std::__1::__libcpp_compressed_pair_imp"*, %"class.std::__1::__libcpp_compressed_pair_imp"** %69, align 8, !dbg !2101
  %143 = getelementptr inbounds %"class.std::__1::__libcpp_compressed_pair_imp", %"class.std::__1::__libcpp_compressed_pair_imp"* %142, i32 0, i32 0, !dbg !2102
  %144 = getelementptr inbounds %"struct.std::__1::basic_string<char, std::__1::char_traits<char>, std::__1::allocator<char> >::__rep", %"struct.std::__1::basic_string<char, std::__1::char_traits<char>, std::__1::allocator<char> >::__rep"* %143, i32 0, i32 0, !dbg !2103
  %145 = bitcast %union.anon* %144 to %"struct.std::__1::basic_string<char, std::__1::char_traits<char>, std::__1::allocator<char> >::__short"*, !dbg !2103
  %146 = getelementptr inbounds %"struct.std::__1::basic_string<char, std::__1::char_traits<char>, std::__1::allocator<char> >::__short", %"struct.std::__1::basic_string<char, std::__1::char_traits<char>, std::__1::allocator<char> >::__short"* %145, i32 0, i32 0, !dbg !2104
  %147 = bitcast %union.anon.0* %146 to i8*, !dbg !2104
  %148 = load i8, i8* %147, align 8, !dbg !2104
  %149 = zext i8 %148 to i32, !dbg !2099
  %150 = and i32 %149, 1, !dbg !2105
  %151 = icmp ne i32 %150, 0, !dbg !2099
  br i1 %151, label %152, label %163, !dbg !2098

; <label>:152:                                    ; preds = %134
  store %"class.std::__1::basic_string"* %137, %"class.std::__1::basic_string"** %63, align 8, !dbg !2106
  %153 = load %"class.std::__1::basic_string"*, %"class.std::__1::basic_string"** %63, align 8, !dbg !2106
  %154 = getelementptr inbounds %"class.std::__1::basic_string", %"class.std::__1::basic_string"* %153, i32 0, i32 0, !dbg !2107
  store %"class.std::__1::__compressed_pair"* %154, %"class.std::__1::__compressed_pair"** %62, align 8, !dbg !2108
  %155 = load %"class.std::__1::__compressed_pair"*, %"class.std::__1::__compressed_pair"** %62, align 8, !dbg !2108
  %156 = bitcast %"class.std::__1::__compressed_pair"* %155 to %"class.std::__1::__libcpp_compressed_pair_imp"*, !dbg !2109
  store %"class.std::__1::__libcpp_compressed_pair_imp"* %156, %"class.std::__1::__libcpp_compressed_pair_imp"** %61, align 8, !dbg !2109
  %157 = load %"class.std::__1::__libcpp_compressed_pair_imp"*, %"class.std::__1::__libcpp_compressed_pair_imp"** %61, align 8, !dbg !2109
  %158 = getelementptr inbounds %"class.std::__1::__libcpp_compressed_pair_imp", %"class.std::__1::__libcpp_compressed_pair_imp"* %157, i32 0, i32 0, !dbg !2110
  %159 = getelementptr inbounds %"struct.std::__1::basic_string<char, std::__1::char_traits<char>, std::__1::allocator<char> >::__rep", %"struct.std::__1::basic_string<char, std::__1::char_traits<char>, std::__1::allocator<char> >::__rep"* %158, i32 0, i32 0, !dbg !2111
  %160 = bitcast %union.anon* %159 to %"struct.std::__1::basic_string<char, std::__1::char_traits<char>, std::__1::allocator<char> >::__long"*, !dbg !2111
  %161 = getelementptr inbounds %"struct.std::__1::basic_string<char, std::__1::char_traits<char>, std::__1::allocator<char> >::__long", %"struct.std::__1::basic_string<char, std::__1::char_traits<char>, std::__1::allocator<char> >::__long"* %160, i32 0, i32 2, !dbg !2112
  %162 = load i8*, i8** %161, align 8, !dbg !2112
  br label %176, !dbg !2098

; <label>:163:                                    ; preds = %134
  store %"class.std::__1::basic_string"* %137, %"class.std::__1::basic_string"** %68, align 8, !dbg !2113
  %164 = load %"class.std::__1::basic_string"*, %"class.std::__1::basic_string"** %68, align 8, !dbg !2113
  %165 = getelementptr inbounds %"class.std::__1::basic_string", %"class.std::__1::basic_string"* %164, i32 0, i32 0, !dbg !2114
  store %"class.std::__1::__compressed_pair"* %165, %"class.std::__1::__compressed_pair"** %67, align 8, !dbg !2115
  %166 = load %"class.std::__1::__compressed_pair"*, %"class.std::__1::__compressed_pair"** %67, align 8, !dbg !2115
  %167 = bitcast %"class.std::__1::__compressed_pair"* %166 to %"class.std::__1::__libcpp_compressed_pair_imp"*, !dbg !2116
  store %"class.std::__1::__libcpp_compressed_pair_imp"* %167, %"class.std::__1::__libcpp_compressed_pair_imp"** %66, align 8, !dbg !2116
  %168 = load %"class.std::__1::__libcpp_compressed_pair_imp"*, %"class.std::__1::__libcpp_compressed_pair_imp"** %66, align 8, !dbg !2116
  %169 = getelementptr inbounds %"class.std::__1::__libcpp_compressed_pair_imp", %"class.std::__1::__libcpp_compressed_pair_imp"* %168, i32 0, i32 0, !dbg !2117
  %170 = getelementptr inbounds %"struct.std::__1::basic_string<char, std::__1::char_traits<char>, std::__1::allocator<char> >::__rep", %"struct.std::__1::basic_string<char, std::__1::char_traits<char>, std::__1::allocator<char> >::__rep"* %169, i32 0, i32 0, !dbg !2118
  %171 = bitcast %union.anon* %170 to %"struct.std::__1::basic_string<char, std::__1::char_traits<char>, std::__1::allocator<char> >::__short"*, !dbg !2118
  %172 = getelementptr inbounds %"struct.std::__1::basic_string<char, std::__1::char_traits<char>, std::__1::allocator<char> >::__short", %"struct.std::__1::basic_string<char, std::__1::char_traits<char>, std::__1::allocator<char> >::__short"* %171, i32 0, i32 1, !dbg !2119
  %173 = getelementptr inbounds [23 x i8], [23 x i8]* %172, i64 0, i64 0, !dbg !2114
  store i8* %173, i8** %65, align 8, !dbg !2120
  %174 = load i8*, i8** %65, align 8, !dbg !2121
  store i8* %174, i8** %64, align 8, !dbg !2122
  %175 = load i8*, i8** %64, align 8, !dbg !2123
  br label %176, !dbg !2098

; <label>:176:                                    ; preds = %163, %152
  %177 = phi i8* [ %162, %152 ], [ %175, %163 ], !dbg !2098
  store i8* %177, i8** %60, align 8, !dbg !2124
  %178 = load i8*, i8** %60, align 8, !dbg !2125
  store %"class.std::__1::basic_string"* %135, %"class.std::__1::basic_string"** %49, align 8, !dbg !2126
  %179 = load %"class.std::__1::basic_string"*, %"class.std::__1::basic_string"** %49, align 8, !dbg !2126
  store %"class.std::__1::basic_string"* %179, %"class.std::__1::basic_string"** %48, align 8, !dbg !2127
  %180 = load %"class.std::__1::basic_string"*, %"class.std::__1::basic_string"** %48, align 8, !dbg !2127
  %181 = getelementptr inbounds %"class.std::__1::basic_string", %"class.std::__1::basic_string"* %180, i32 0, i32 0, !dbg !2128
  store %"class.std::__1::__compressed_pair"* %181, %"class.std::__1::__compressed_pair"** %47, align 8, !dbg !2129
  %182 = load %"class.std::__1::__compressed_pair"*, %"class.std::__1::__compressed_pair"** %47, align 8, !dbg !2129
  %183 = bitcast %"class.std::__1::__compressed_pair"* %182 to %"class.std::__1::__libcpp_compressed_pair_imp"*, !dbg !2130
  store %"class.std::__1::__libcpp_compressed_pair_imp"* %183, %"class.std::__1::__libcpp_compressed_pair_imp"** %46, align 8, !dbg !2130
  %184 = load %"class.std::__1::__libcpp_compressed_pair_imp"*, %"class.std::__1::__libcpp_compressed_pair_imp"** %46, align 8, !dbg !2130
  %185 = getelementptr inbounds %"class.std::__1::__libcpp_compressed_pair_imp", %"class.std::__1::__libcpp_compressed_pair_imp"* %184, i32 0, i32 0, !dbg !2131
  %186 = getelementptr inbounds %"struct.std::__1::basic_string<char, std::__1::char_traits<char>, std::__1::allocator<char> >::__rep", %"struct.std::__1::basic_string<char, std::__1::char_traits<char>, std::__1::allocator<char> >::__rep"* %185, i32 0, i32 0, !dbg !2132
  %187 = bitcast %union.anon* %186 to %"struct.std::__1::basic_string<char, std::__1::char_traits<char>, std::__1::allocator<char> >::__short"*, !dbg !2132
  %188 = getelementptr inbounds %"struct.std::__1::basic_string<char, std::__1::char_traits<char>, std::__1::allocator<char> >::__short", %"struct.std::__1::basic_string<char, std::__1::char_traits<char>, std::__1::allocator<char> >::__short"* %187, i32 0, i32 0, !dbg !2133
  %189 = bitcast %union.anon.0* %188 to i8*, !dbg !2133
  %190 = load i8, i8* %189, align 8, !dbg !2133
  %191 = zext i8 %190 to i32, !dbg !2128
  %192 = and i32 %191, 1, !dbg !2134
  %193 = icmp ne i32 %192, 0, !dbg !2128
  br i1 %193, label %194, label %205, !dbg !2127

; <label>:194:                                    ; preds = %176
  store %"class.std::__1::basic_string"* %179, %"class.std::__1::basic_string"** %42, align 8, !dbg !2135
  %195 = load %"class.std::__1::basic_string"*, %"class.std::__1::basic_string"** %42, align 8, !dbg !2135
  %196 = getelementptr inbounds %"class.std::__1::basic_string", %"class.std::__1::basic_string"* %195, i32 0, i32 0, !dbg !2136
  store %"class.std::__1::__compressed_pair"* %196, %"class.std::__1::__compressed_pair"** %41, align 8, !dbg !2137
  %197 = load %"class.std::__1::__compressed_pair"*, %"class.std::__1::__compressed_pair"** %41, align 8, !dbg !2137
  %198 = bitcast %"class.std::__1::__compressed_pair"* %197 to %"class.std::__1::__libcpp_compressed_pair_imp"*, !dbg !2138
  store %"class.std::__1::__libcpp_compressed_pair_imp"* %198, %"class.std::__1::__libcpp_compressed_pair_imp"** %40, align 8, !dbg !2138
  %199 = load %"class.std::__1::__libcpp_compressed_pair_imp"*, %"class.std::__1::__libcpp_compressed_pair_imp"** %40, align 8, !dbg !2138
  %200 = getelementptr inbounds %"class.std::__1::__libcpp_compressed_pair_imp", %"class.std::__1::__libcpp_compressed_pair_imp"* %199, i32 0, i32 0, !dbg !2139
  %201 = getelementptr inbounds %"struct.std::__1::basic_string<char, std::__1::char_traits<char>, std::__1::allocator<char> >::__rep", %"struct.std::__1::basic_string<char, std::__1::char_traits<char>, std::__1::allocator<char> >::__rep"* %200, i32 0, i32 0, !dbg !2140
  %202 = bitcast %union.anon* %201 to %"struct.std::__1::basic_string<char, std::__1::char_traits<char>, std::__1::allocator<char> >::__long"*, !dbg !2140
  %203 = getelementptr inbounds %"struct.std::__1::basic_string<char, std::__1::char_traits<char>, std::__1::allocator<char> >::__long", %"struct.std::__1::basic_string<char, std::__1::char_traits<char>, std::__1::allocator<char> >::__long"* %202, i32 0, i32 1, !dbg !2141
  %204 = load i64, i64* %203, align 8, !dbg !2141
  br label %220, !dbg !2127

; <label>:205:                                    ; preds = %176
  store %"class.std::__1::basic_string"* %179, %"class.std::__1::basic_string"** %45, align 8, !dbg !2142
  %206 = load %"class.std::__1::basic_string"*, %"class.std::__1::basic_string"** %45, align 8, !dbg !2142
  %207 = getelementptr inbounds %"class.std::__1::basic_string", %"class.std::__1::basic_string"* %206, i32 0, i32 0, !dbg !2143
  store %"class.std::__1::__compressed_pair"* %207, %"class.std::__1::__compressed_pair"** %44, align 8, !dbg !2144
  %208 = load %"class.std::__1::__compressed_pair"*, %"class.std::__1::__compressed_pair"** %44, align 8, !dbg !2144
  %209 = bitcast %"class.std::__1::__compressed_pair"* %208 to %"class.std::__1::__libcpp_compressed_pair_imp"*, !dbg !2145
  store %"class.std::__1::__libcpp_compressed_pair_imp"* %209, %"class.std::__1::__libcpp_compressed_pair_imp"** %43, align 8, !dbg !2145
  %210 = load %"class.std::__1::__libcpp_compressed_pair_imp"*, %"class.std::__1::__libcpp_compressed_pair_imp"** %43, align 8, !dbg !2145
  %211 = getelementptr inbounds %"class.std::__1::__libcpp_compressed_pair_imp", %"class.std::__1::__libcpp_compressed_pair_imp"* %210, i32 0, i32 0, !dbg !2146
  %212 = getelementptr inbounds %"struct.std::__1::basic_string<char, std::__1::char_traits<char>, std::__1::allocator<char> >::__rep", %"struct.std::__1::basic_string<char, std::__1::char_traits<char>, std::__1::allocator<char> >::__rep"* %211, i32 0, i32 0, !dbg !2147
  %213 = bitcast %union.anon* %212 to %"struct.std::__1::basic_string<char, std::__1::char_traits<char>, std::__1::allocator<char> >::__short"*, !dbg !2147
  %214 = getelementptr inbounds %"struct.std::__1::basic_string<char, std::__1::char_traits<char>, std::__1::allocator<char> >::__short", %"struct.std::__1::basic_string<char, std::__1::char_traits<char>, std::__1::allocator<char> >::__short"* %213, i32 0, i32 0, !dbg !2148
  %215 = bitcast %union.anon.0* %214 to i8*, !dbg !2148
  %216 = load i8, i8* %215, align 8, !dbg !2148
  %217 = zext i8 %216 to i32, !dbg !2143
  %218 = ashr i32 %217, 1, !dbg !2149
  %219 = sext i32 %218 to i64, !dbg !2143
  br label %220, !dbg !2127

; <label>:220:                                    ; preds = %205, %194
  %221 = phi i64 [ %204, %194 ], [ %219, %205 ], !dbg !2127
  %222 = load i8*, i8** %75, align 8, !dbg !2150
  %223 = load i64, i64* %76, align 8, !dbg !2151
  %224 = load i8*, i8** %75, align 8, !dbg !2152
  %225 = invoke i64 @_ZNSt3__111char_traitsIcE6lengthEPKc(i8* %224)
          to label %226 unwind label %279, !dbg !2153

; <label>:226:                                    ; preds = %220
  store i8* %178, i8** %51, align 8, !dbg !2154
  store i64 %221, i64* %52, align 8, !dbg !2154
  store i8* %222, i8** %53, align 8, !dbg !2154
  store i64 %223, i64* %54, align 8, !dbg !2154
  store i64 %225, i64* %55, align 8, !dbg !2154
  %227 = load i64, i64* %54, align 8, !dbg !2155
  %228 = load i64, i64* %52, align 8, !dbg !2156
  %229 = icmp ugt i64 %227, %228, !dbg !2157
  br i1 %229, label %236, label %230, !dbg !2158

; <label>:230:                                    ; preds = %226
  %231 = load i64, i64* %52, align 8, !dbg !2159
  %232 = load i64, i64* %54, align 8, !dbg !2160
  %233 = sub i64 %231, %232, !dbg !2161
  %234 = load i64, i64* %55, align 8, !dbg !2162
  %235 = icmp ult i64 %233, %234, !dbg !2163
  br i1 %235, label %236, label %237, !dbg !2164

; <label>:236:                                    ; preds = %230, %226
  store i64 -1, i64* %50, align 8, !dbg !2165
  br label %284, !dbg !2165

; <label>:237:                                    ; preds = %230
  %238 = load i64, i64* %55, align 8, !dbg !2166
  %239 = icmp eq i64 %238, 0, !dbg !2167
  br i1 %239, label %240, label %242, !dbg !2168

; <label>:240:                                    ; preds = %237
  %241 = load i64, i64* %54, align 8, !dbg !2169
  store i64 %241, i64* %50, align 8, !dbg !2170
  br label %284, !dbg !2170

; <label>:242:                                    ; preds = %237
  %243 = load i8*, i8** %51, align 8, !dbg !2171
  %244 = load i64, i64* %54, align 8, !dbg !2172
  %245 = getelementptr inbounds i8, i8* %243, i64 %244, !dbg !2173
  %246 = load i8*, i8** %51, align 8, !dbg !2174
  %247 = load i64, i64* %52, align 8, !dbg !2175
  %248 = getelementptr inbounds i8, i8* %246, i64 %247, !dbg !2176
  %249 = load i8*, i8** %53, align 8, !dbg !2177
  %250 = load i8*, i8** %53, align 8, !dbg !2178
  %251 = load i64, i64* %55, align 8, !dbg !2179
  %252 = getelementptr inbounds i8, i8* %250, i64 %251, !dbg !2180
  %253 = invoke { i8*, i8* } @_ZNSt3__18__searchIPFbccEPKcS4_EENS_4pairIT0_S6_EES6_S6_T1_S8_T_NS_26random_access_iterator_tagESA_(i8* %245, i8* %248, i8* %249, i8* %252, i1 (i8, i8)* @_ZNSt3__111char_traitsIcE2eqEcc)
          to label %254 unwind label %268, !dbg !2181

; <label>:254:                                    ; preds = %242
  %255 = bitcast %"struct.std::__1::pair"* %59 to { i8*, i8* }*, !dbg !2181
  %256 = getelementptr inbounds { i8*, i8* }, { i8*, i8* }* %255, i32 0, i32 0, !dbg !2181
  %257 = extractvalue { i8*, i8* } %253, 0, !dbg !2181
  store i8* %257, i8** %256, align 8, !dbg !2181
  %258 = getelementptr inbounds { i8*, i8* }, { i8*, i8* }* %255, i32 0, i32 1, !dbg !2181
  %259 = extractvalue { i8*, i8* } %253, 1, !dbg !2181
  store i8* %259, i8** %258, align 8, !dbg !2181
  %260 = getelementptr inbounds %"struct.std::__1::pair", %"struct.std::__1::pair"* %59, i32 0, i32 0, !dbg !2182
  %261 = load i8*, i8** %260, align 8, !dbg !2182
  store i8* %261, i8** %56, align 8, !dbg !2000
  %262 = load i8*, i8** %56, align 8, !dbg !2183
  %263 = load i8*, i8** %51, align 8, !dbg !2184
  %264 = load i64, i64* %52, align 8, !dbg !2185
  %265 = getelementptr inbounds i8, i8* %263, i64 %264, !dbg !2186
  %266 = icmp eq i8* %262, %265, !dbg !2187
  br i1 %266, label %267, label %273, !dbg !2188

; <label>:267:                                    ; preds = %254
  store i64 -1, i64* %50, align 8, !dbg !2189
  br label %284, !dbg !2189

; <label>:268:                                    ; preds = %242
  %269 = landingpad { i8*, i32 }
          filter [0 x i8*] zeroinitializer, !dbg !2190
  %270 = extractvalue { i8*, i32 } %269, 0, !dbg !2190
  store i8* %270, i8** %57, align 8, !dbg !2190
  %271 = extractvalue { i8*, i32 } %269, 1, !dbg !2190
  store i32 %271, i32* %58, align 4, !dbg !2190
  %272 = load i8*, i8** %57, align 8, !dbg !2190
  call void @__cxa_call_unexpected(i8* %272) #9, !dbg !2190
  unreachable, !dbg !2190

; <label>:273:                                    ; preds = %254
  %274 = load i8*, i8** %56, align 8, !dbg !2191
  %275 = load i8*, i8** %51, align 8, !dbg !2192
  %276 = ptrtoint i8* %274 to i64, !dbg !2193
  %277 = ptrtoint i8* %275 to i64, !dbg !2193
  %278 = sub i64 %276, %277, !dbg !2193
  store i64 %278, i64* %50, align 8, !dbg !2194
  br label %284, !dbg !2194

; <label>:279:                                    ; preds = %220
  %280 = landingpad { i8*, i32 }
          filter [0 x i8*] zeroinitializer, !dbg !2195
  %281 = extractvalue { i8*, i32 } %280, 0, !dbg !2195
  store i8* %281, i8** %77, align 8, !dbg !2195
  %282 = extractvalue { i8*, i32 } %280, 1, !dbg !2195
  store i32 %282, i32* %78, align 4, !dbg !2195
  %283 = load i8*, i8** %77, align 8, !dbg !2196
  call void @__cxa_call_unexpected(i8* %283) #9, !dbg !2196
  unreachable, !dbg !2196

; <label>:284:                                    ; preds = %236, %240, %267, %273
  %285 = load i64, i64* %50, align 8, !dbg !2190
  %286 = icmp ne i64 %285, -1, !dbg !2197
  br i1 %286, label %440, label %287, !dbg !2198

; <label>:287:                                    ; preds = %284
  store %"class.std::__1::basic_string"* %96, %"class.std::__1::basic_string"** %35, align 8, !dbg !2199
  store i8* getelementptr inbounds ([5 x i8], [5 x i8]* @.str, i32 0, i32 0), i8** %36, align 8, !dbg !2199
  store i64 0, i64* %37, align 8, !dbg !2199
  %288 = load %"class.std::__1::basic_string"*, %"class.std::__1::basic_string"** %35, align 8, !dbg !2199
  store %"class.std::__1::basic_string"* %288, %"class.std::__1::basic_string"** %34, align 8, !dbg !2200
  %289 = load %"class.std::__1::basic_string"*, %"class.std::__1::basic_string"** %34, align 8, !dbg !2200
  store %"class.std::__1::basic_string"* %289, %"class.std::__1::basic_string"** %33, align 8, !dbg !2201
  %290 = load %"class.std::__1::basic_string"*, %"class.std::__1::basic_string"** %33, align 8, !dbg !2201
  store %"class.std::__1::basic_string"* %290, %"class.std::__1::basic_string"** %32, align 8, !dbg !2202
  %291 = load %"class.std::__1::basic_string"*, %"class.std::__1::basic_string"** %32, align 8, !dbg !2202
  %292 = getelementptr inbounds %"class.std::__1::basic_string", %"class.std::__1::basic_string"* %291, i32 0, i32 0, !dbg !2203
  store %"class.std::__1::__compressed_pair"* %292, %"class.std::__1::__compressed_pair"** %31, align 8, !dbg !2204
  %293 = load %"class.std::__1::__compressed_pair"*, %"class.std::__1::__compressed_pair"** %31, align 8, !dbg !2204
  %294 = bitcast %"class.std::__1::__compressed_pair"* %293 to %"class.std::__1::__libcpp_compressed_pair_imp"*, !dbg !2205
  store %"class.std::__1::__libcpp_compressed_pair_imp"* %294, %"class.std::__1::__libcpp_compressed_pair_imp"** %30, align 8, !dbg !2205
  %295 = load %"class.std::__1::__libcpp_compressed_pair_imp"*, %"class.std::__1::__libcpp_compressed_pair_imp"** %30, align 8, !dbg !2205
  %296 = getelementptr inbounds %"class.std::__1::__libcpp_compressed_pair_imp", %"class.std::__1::__libcpp_compressed_pair_imp"* %295, i32 0, i32 0, !dbg !2206
  %297 = getelementptr inbounds %"struct.std::__1::basic_string<char, std::__1::char_traits<char>, std::__1::allocator<char> >::__rep", %"struct.std::__1::basic_string<char, std::__1::char_traits<char>, std::__1::allocator<char> >::__rep"* %296, i32 0, i32 0, !dbg !2207
  %298 = bitcast %union.anon* %297 to %"struct.std::__1::basic_string<char, std::__1::char_traits<char>, std::__1::allocator<char> >::__short"*, !dbg !2207
  %299 = getelementptr inbounds %"struct.std::__1::basic_string<char, std::__1::char_traits<char>, std::__1::allocator<char> >::__short", %"struct.std::__1::basic_string<char, std::__1::char_traits<char>, std::__1::allocator<char> >::__short"* %298, i32 0, i32 0, !dbg !2208
  %300 = bitcast %union.anon.0* %299 to i8*, !dbg !2208
  %301 = load i8, i8* %300, align 8, !dbg !2208
  %302 = zext i8 %301 to i32, !dbg !2203
  %303 = and i32 %302, 1, !dbg !2209
  %304 = icmp ne i32 %303, 0, !dbg !2203
  br i1 %304, label %305, label %316, !dbg !2202

; <label>:305:                                    ; preds = %287
  store %"class.std::__1::basic_string"* %290, %"class.std::__1::basic_string"** %24, align 8, !dbg !2210
  %306 = load %"class.std::__1::basic_string"*, %"class.std::__1::basic_string"** %24, align 8, !dbg !2210
  %307 = getelementptr inbounds %"class.std::__1::basic_string", %"class.std::__1::basic_string"* %306, i32 0, i32 0, !dbg !2211
  store %"class.std::__1::__compressed_pair"* %307, %"class.std::__1::__compressed_pair"** %23, align 8, !dbg !2212
  %308 = load %"class.std::__1::__compressed_pair"*, %"class.std::__1::__compressed_pair"** %23, align 8, !dbg !2212
  %309 = bitcast %"class.std::__1::__compressed_pair"* %308 to %"class.std::__1::__libcpp_compressed_pair_imp"*, !dbg !2213
  store %"class.std::__1::__libcpp_compressed_pair_imp"* %309, %"class.std::__1::__libcpp_compressed_pair_imp"** %22, align 8, !dbg !2213
  %310 = load %"class.std::__1::__libcpp_compressed_pair_imp"*, %"class.std::__1::__libcpp_compressed_pair_imp"** %22, align 8, !dbg !2213
  %311 = getelementptr inbounds %"class.std::__1::__libcpp_compressed_pair_imp", %"class.std::__1::__libcpp_compressed_pair_imp"* %310, i32 0, i32 0, !dbg !2214
  %312 = getelementptr inbounds %"struct.std::__1::basic_string<char, std::__1::char_traits<char>, std::__1::allocator<char> >::__rep", %"struct.std::__1::basic_string<char, std::__1::char_traits<char>, std::__1::allocator<char> >::__rep"* %311, i32 0, i32 0, !dbg !2215
  %313 = bitcast %union.anon* %312 to %"struct.std::__1::basic_string<char, std::__1::char_traits<char>, std::__1::allocator<char> >::__long"*, !dbg !2215
  %314 = getelementptr inbounds %"struct.std::__1::basic_string<char, std::__1::char_traits<char>, std::__1::allocator<char> >::__long", %"struct.std::__1::basic_string<char, std::__1::char_traits<char>, std::__1::allocator<char> >::__long"* %313, i32 0, i32 2, !dbg !2216
  %315 = load i8*, i8** %314, align 8, !dbg !2216
  br label %329, !dbg !2202

; <label>:316:                                    ; preds = %287
  store %"class.std::__1::basic_string"* %290, %"class.std::__1::basic_string"** %29, align 8, !dbg !2217
  %317 = load %"class.std::__1::basic_string"*, %"class.std::__1::basic_string"** %29, align 8, !dbg !2217
  %318 = getelementptr inbounds %"class.std::__1::basic_string", %"class.std::__1::basic_string"* %317, i32 0, i32 0, !dbg !2218
  store %"class.std::__1::__compressed_pair"* %318, %"class.std::__1::__compressed_pair"** %28, align 8, !dbg !2219
  %319 = load %"class.std::__1::__compressed_pair"*, %"class.std::__1::__compressed_pair"** %28, align 8, !dbg !2219
  %320 = bitcast %"class.std::__1::__compressed_pair"* %319 to %"class.std::__1::__libcpp_compressed_pair_imp"*, !dbg !2220
  store %"class.std::__1::__libcpp_compressed_pair_imp"* %320, %"class.std::__1::__libcpp_compressed_pair_imp"** %27, align 8, !dbg !2220
  %321 = load %"class.std::__1::__libcpp_compressed_pair_imp"*, %"class.std::__1::__libcpp_compressed_pair_imp"** %27, align 8, !dbg !2220
  %322 = getelementptr inbounds %"class.std::__1::__libcpp_compressed_pair_imp", %"class.std::__1::__libcpp_compressed_pair_imp"* %321, i32 0, i32 0, !dbg !2221
  %323 = getelementptr inbounds %"struct.std::__1::basic_string<char, std::__1::char_traits<char>, std::__1::allocator<char> >::__rep", %"struct.std::__1::basic_string<char, std::__1::char_traits<char>, std::__1::allocator<char> >::__rep"* %322, i32 0, i32 0, !dbg !2222
  %324 = bitcast %union.anon* %323 to %"struct.std::__1::basic_string<char, std::__1::char_traits<char>, std::__1::allocator<char> >::__short"*, !dbg !2222
  %325 = getelementptr inbounds %"struct.std::__1::basic_string<char, std::__1::char_traits<char>, std::__1::allocator<char> >::__short", %"struct.std::__1::basic_string<char, std::__1::char_traits<char>, std::__1::allocator<char> >::__short"* %324, i32 0, i32 1, !dbg !2223
  %326 = getelementptr inbounds [23 x i8], [23 x i8]* %325, i64 0, i64 0, !dbg !2218
  store i8* %326, i8** %26, align 8, !dbg !2224
  %327 = load i8*, i8** %26, align 8, !dbg !2225
  store i8* %327, i8** %25, align 8, !dbg !2226
  %328 = load i8*, i8** %25, align 8, !dbg !2227
  br label %329, !dbg !2202

; <label>:329:                                    ; preds = %316, %305
  %330 = phi i8* [ %315, %305 ], [ %328, %316 ], !dbg !2202
  store i8* %330, i8** %21, align 8, !dbg !2228
  %331 = load i8*, i8** %21, align 8, !dbg !2229
  store %"class.std::__1::basic_string"* %288, %"class.std::__1::basic_string"** %10, align 8, !dbg !2230
  %332 = load %"class.std::__1::basic_string"*, %"class.std::__1::basic_string"** %10, align 8, !dbg !2230
  store %"class.std::__1::basic_string"* %332, %"class.std::__1::basic_string"** %9, align 8, !dbg !2231
  %333 = load %"class.std::__1::basic_string"*, %"class.std::__1::basic_string"** %9, align 8, !dbg !2231
  %334 = getelementptr inbounds %"class.std::__1::basic_string", %"class.std::__1::basic_string"* %333, i32 0, i32 0, !dbg !2232
  store %"class.std::__1::__compressed_pair"* %334, %"class.std::__1::__compressed_pair"** %8, align 8, !dbg !2233
  %335 = load %"class.std::__1::__compressed_pair"*, %"class.std::__1::__compressed_pair"** %8, align 8, !dbg !2233
  %336 = bitcast %"class.std::__1::__compressed_pair"* %335 to %"class.std::__1::__libcpp_compressed_pair_imp"*, !dbg !2234
  store %"class.std::__1::__libcpp_compressed_pair_imp"* %336, %"class.std::__1::__libcpp_compressed_pair_imp"** %7, align 8, !dbg !2234
  %337 = load %"class.std::__1::__libcpp_compressed_pair_imp"*, %"class.std::__1::__libcpp_compressed_pair_imp"** %7, align 8, !dbg !2234
  %338 = getelementptr inbounds %"class.std::__1::__libcpp_compressed_pair_imp", %"class.std::__1::__libcpp_compressed_pair_imp"* %337, i32 0, i32 0, !dbg !2235
  %339 = getelementptr inbounds %"struct.std::__1::basic_string<char, std::__1::char_traits<char>, std::__1::allocator<char> >::__rep", %"struct.std::__1::basic_string<char, std::__1::char_traits<char>, std::__1::allocator<char> >::__rep"* %338, i32 0, i32 0, !dbg !2236
  %340 = bitcast %union.anon* %339 to %"struct.std::__1::basic_string<char, std::__1::char_traits<char>, std::__1::allocator<char> >::__short"*, !dbg !2236
  %341 = getelementptr inbounds %"struct.std::__1::basic_string<char, std::__1::char_traits<char>, std::__1::allocator<char> >::__short", %"struct.std::__1::basic_string<char, std::__1::char_traits<char>, std::__1::allocator<char> >::__short"* %340, i32 0, i32 0, !dbg !2237
  %342 = bitcast %union.anon.0* %341 to i8*, !dbg !2237
  %343 = load i8, i8* %342, align 8, !dbg !2237
  %344 = zext i8 %343 to i32, !dbg !2232
  %345 = and i32 %344, 1, !dbg !2238
  %346 = icmp ne i32 %345, 0, !dbg !2232
  br i1 %346, label %347, label %358, !dbg !2231

; <label>:347:                                    ; preds = %329
  store %"class.std::__1::basic_string"* %332, %"class.std::__1::basic_string"** %3, align 8, !dbg !2239
  %348 = load %"class.std::__1::basic_string"*, %"class.std::__1::basic_string"** %3, align 8, !dbg !2239
  %349 = getelementptr inbounds %"class.std::__1::basic_string", %"class.std::__1::basic_string"* %348, i32 0, i32 0, !dbg !2240
  store %"class.std::__1::__compressed_pair"* %349, %"class.std::__1::__compressed_pair"** %2, align 8, !dbg !2241
  %350 = load %"class.std::__1::__compressed_pair"*, %"class.std::__1::__compressed_pair"** %2, align 8, !dbg !2241
  %351 = bitcast %"class.std::__1::__compressed_pair"* %350 to %"class.std::__1::__libcpp_compressed_pair_imp"*, !dbg !2242
  store %"class.std::__1::__libcpp_compressed_pair_imp"* %351, %"class.std::__1::__libcpp_compressed_pair_imp"** %1, align 8, !dbg !2242
  %352 = load %"class.std::__1::__libcpp_compressed_pair_imp"*, %"class.std::__1::__libcpp_compressed_pair_imp"** %1, align 8, !dbg !2242
  %353 = getelementptr inbounds %"class.std::__1::__libcpp_compressed_pair_imp", %"class.std::__1::__libcpp_compressed_pair_imp"* %352, i32 0, i32 0, !dbg !2243
  %354 = getelementptr inbounds %"struct.std::__1::basic_string<char, std::__1::char_traits<char>, std::__1::allocator<char> >::__rep", %"struct.std::__1::basic_string<char, std::__1::char_traits<char>, std::__1::allocator<char> >::__rep"* %353, i32 0, i32 0, !dbg !2244
  %355 = bitcast %union.anon* %354 to %"struct.std::__1::basic_string<char, std::__1::char_traits<char>, std::__1::allocator<char> >::__long"*, !dbg !2244
  %356 = getelementptr inbounds %"struct.std::__1::basic_string<char, std::__1::char_traits<char>, std::__1::allocator<char> >::__long", %"struct.std::__1::basic_string<char, std::__1::char_traits<char>, std::__1::allocator<char> >::__long"* %355, i32 0, i32 1, !dbg !2245
  %357 = load i64, i64* %356, align 8, !dbg !2245
  br label %373, !dbg !2231

; <label>:358:                                    ; preds = %329
  store %"class.std::__1::basic_string"* %332, %"class.std::__1::basic_string"** %6, align 8, !dbg !2246
  %359 = load %"class.std::__1::basic_string"*, %"class.std::__1::basic_string"** %6, align 8, !dbg !2246
  %360 = getelementptr inbounds %"class.std::__1::basic_string", %"class.std::__1::basic_string"* %359, i32 0, i32 0, !dbg !2247
  store %"class.std::__1::__compressed_pair"* %360, %"class.std::__1::__compressed_pair"** %5, align 8, !dbg !2248
  %361 = load %"class.std::__1::__compressed_pair"*, %"class.std::__1::__compressed_pair"** %5, align 8, !dbg !2248
  %362 = bitcast %"class.std::__1::__compressed_pair"* %361 to %"class.std::__1::__libcpp_compressed_pair_imp"*, !dbg !2249
  store %"class.std::__1::__libcpp_compressed_pair_imp"* %362, %"class.std::__1::__libcpp_compressed_pair_imp"** %4, align 8, !dbg !2249
  %363 = load %"class.std::__1::__libcpp_compressed_pair_imp"*, %"class.std::__1::__libcpp_compressed_pair_imp"** %4, align 8, !dbg !2249
  %364 = getelementptr inbounds %"class.std::__1::__libcpp_compressed_pair_imp", %"class.std::__1::__libcpp_compressed_pair_imp"* %363, i32 0, i32 0, !dbg !2250
  %365 = getelementptr inbounds %"struct.std::__1::basic_string<char, std::__1::char_traits<char>, std::__1::allocator<char> >::__rep", %"struct.std::__1::basic_string<char, std::__1::char_traits<char>, std::__1::allocator<char> >::__rep"* %364, i32 0, i32 0, !dbg !2251
  %366 = bitcast %union.anon* %365 to %"struct.std::__1::basic_string<char, std::__1::char_traits<char>, std::__1::allocator<char> >::__short"*, !dbg !2251
  %367 = getelementptr inbounds %"struct.std::__1::basic_string<char, std::__1::char_traits<char>, std::__1::allocator<char> >::__short", %"struct.std::__1::basic_string<char, std::__1::char_traits<char>, std::__1::allocator<char> >::__short"* %366, i32 0, i32 0, !dbg !2252
  %368 = bitcast %union.anon.0* %367 to i8*, !dbg !2252
  %369 = load i8, i8* %368, align 8, !dbg !2252
  %370 = zext i8 %369 to i32, !dbg !2247
  %371 = ashr i32 %370, 1, !dbg !2253
  %372 = sext i32 %371 to i64, !dbg !2247
  br label %373, !dbg !2231

; <label>:373:                                    ; preds = %358, %347
  %374 = phi i64 [ %357, %347 ], [ %372, %358 ], !dbg !2231
  %375 = load i8*, i8** %36, align 8, !dbg !2254
  %376 = load i64, i64* %37, align 8, !dbg !2255
  %377 = load i8*, i8** %36, align 8, !dbg !2256
  %378 = invoke i64 @_ZNSt3__111char_traitsIcE6lengthEPKc(i8* %377)
          to label %379 unwind label %432, !dbg !2257

; <label>:379:                                    ; preds = %373
  store i8* %331, i8** %12, align 8, !dbg !2258
  store i64 %374, i64* %13, align 8, !dbg !2258
  store i8* %375, i8** %14, align 8, !dbg !2258
  store i64 %376, i64* %15, align 8, !dbg !2258
  store i64 %378, i64* %16, align 8, !dbg !2258
  %380 = load i64, i64* %15, align 8, !dbg !2259
  %381 = load i64, i64* %13, align 8, !dbg !2260
  %382 = icmp ugt i64 %380, %381, !dbg !2261
  br i1 %382, label %389, label %383, !dbg !2262

; <label>:383:                                    ; preds = %379
  %384 = load i64, i64* %13, align 8, !dbg !2263
  %385 = load i64, i64* %15, align 8, !dbg !2264
  %386 = sub i64 %384, %385, !dbg !2265
  %387 = load i64, i64* %16, align 8, !dbg !2266
  %388 = icmp ult i64 %386, %387, !dbg !2267
  br i1 %388, label %389, label %390, !dbg !2268

; <label>:389:                                    ; preds = %383, %379
  store i64 -1, i64* %11, align 8, !dbg !2269
  br label %437, !dbg !2269

; <label>:390:                                    ; preds = %383
  %391 = load i64, i64* %16, align 8, !dbg !2270
  %392 = icmp eq i64 %391, 0, !dbg !2271
  br i1 %392, label %393, label %395, !dbg !2272

; <label>:393:                                    ; preds = %390
  %394 = load i64, i64* %15, align 8, !dbg !2273
  store i64 %394, i64* %11, align 8, !dbg !2274
  br label %437, !dbg !2274

; <label>:395:                                    ; preds = %390
  %396 = load i8*, i8** %12, align 8, !dbg !2275
  %397 = load i64, i64* %15, align 8, !dbg !2276
  %398 = getelementptr inbounds i8, i8* %396, i64 %397, !dbg !2277
  %399 = load i8*, i8** %12, align 8, !dbg !2278
  %400 = load i64, i64* %13, align 8, !dbg !2279
  %401 = getelementptr inbounds i8, i8* %399, i64 %400, !dbg !2280
  %402 = load i8*, i8** %14, align 8, !dbg !2281
  %403 = load i8*, i8** %14, align 8, !dbg !2282
  %404 = load i64, i64* %16, align 8, !dbg !2283
  %405 = getelementptr inbounds i8, i8* %403, i64 %404, !dbg !2284
  %406 = invoke { i8*, i8* } @_ZNSt3__18__searchIPFbccEPKcS4_EENS_4pairIT0_S6_EES6_S6_T1_S8_T_NS_26random_access_iterator_tagESA_(i8* %398, i8* %401, i8* %402, i8* %405, i1 (i8, i8)* @_ZNSt3__111char_traitsIcE2eqEcc)
          to label %407 unwind label %421, !dbg !2285

; <label>:407:                                    ; preds = %395
  %408 = bitcast %"struct.std::__1::pair"* %20 to { i8*, i8* }*, !dbg !2285
  %409 = getelementptr inbounds { i8*, i8* }, { i8*, i8* }* %408, i32 0, i32 0, !dbg !2285
  %410 = extractvalue { i8*, i8* } %406, 0, !dbg !2285
  store i8* %410, i8** %409, align 8, !dbg !2285
  %411 = getelementptr inbounds { i8*, i8* }, { i8*, i8* }* %408, i32 0, i32 1, !dbg !2285
  %412 = extractvalue { i8*, i8* } %406, 1, !dbg !2285
  store i8* %412, i8** %411, align 8, !dbg !2285
  %413 = getelementptr inbounds %"struct.std::__1::pair", %"struct.std::__1::pair"* %20, i32 0, i32 0, !dbg !2286
  %414 = load i8*, i8** %413, align 8, !dbg !2286
  store i8* %414, i8** %17, align 8, !dbg !1941
  %415 = load i8*, i8** %17, align 8, !dbg !2287
  %416 = load i8*, i8** %12, align 8, !dbg !2288
  %417 = load i64, i64* %13, align 8, !dbg !2289
  %418 = getelementptr inbounds i8, i8* %416, i64 %417, !dbg !2290
  %419 = icmp eq i8* %415, %418, !dbg !2291
  br i1 %419, label %420, label %426, !dbg !2292

; <label>:420:                                    ; preds = %407
  store i64 -1, i64* %11, align 8, !dbg !2293
  br label %437, !dbg !2293

; <label>:421:                                    ; preds = %395
  %422 = landingpad { i8*, i32 }
          filter [0 x i8*] zeroinitializer, !dbg !2294
  %423 = extractvalue { i8*, i32 } %422, 0, !dbg !2294
  store i8* %423, i8** %18, align 8, !dbg !2294
  %424 = extractvalue { i8*, i32 } %422, 1, !dbg !2294
  store i32 %424, i32* %19, align 4, !dbg !2294
  %425 = load i8*, i8** %18, align 8, !dbg !2294
  call void @__cxa_call_unexpected(i8* %425) #9, !dbg !2294
  unreachable, !dbg !2294

; <label>:426:                                    ; preds = %407
  %427 = load i8*, i8** %17, align 8, !dbg !2295
  %428 = load i8*, i8** %12, align 8, !dbg !2296
  %429 = ptrtoint i8* %427 to i64, !dbg !2297
  %430 = ptrtoint i8* %428 to i64, !dbg !2297
  %431 = sub i64 %429, %430, !dbg !2297
  store i64 %431, i64* %11, align 8, !dbg !2298
  br label %437, !dbg !2298

; <label>:432:                                    ; preds = %373
  %433 = landingpad { i8*, i32 }
          filter [0 x i8*] zeroinitializer, !dbg !2299
  %434 = extractvalue { i8*, i32 } %433, 0, !dbg !2299
  store i8* %434, i8** %38, align 8, !dbg !2299
  %435 = extractvalue { i8*, i32 } %433, 1, !dbg !2299
  store i32 %435, i32* %39, align 4, !dbg !2299
  %436 = load i8*, i8** %38, align 8, !dbg !2300
  call void @__cxa_call_unexpected(i8* %436) #9, !dbg !2300
  unreachable, !dbg !2300

; <label>:437:                                    ; preds = %389, %393, %420, %426
  %438 = load i64, i64* %11, align 8, !dbg !2294
  %439 = icmp ne i64 %438, -1, !dbg !2301
  br i1 %439, label %440, label %451, !dbg !2302

; <label>:440:                                    ; preds = %437, %284
  %441 = invoke i32 (i8*, ...) @printf(i8* getelementptr inbounds ([13 x i8], [13 x i8]* @.str.2, i32 0, i32 0))
          to label %442 unwind label %447, !dbg !2303

; <label>:442:                                    ; preds = %440
  store i8 1, i8* %99, align 1, !dbg !2305
  br label %454, !dbg !2306

; <label>:443:                                    ; preds = %132, %0, %459
  %444 = landingpad { i8*, i32 }
          cleanup, !dbg !2307
  %445 = extractvalue { i8*, i32 } %444, 0, !dbg !2307
  store i8* %445, i8** %97, align 8, !dbg !2307
  %446 = extractvalue { i8*, i32 } %444, 1, !dbg !2307
  store i32 %446, i32* %98, align 4, !dbg !2307
  br label %464, !dbg !2307

; <label>:447:                                    ; preds = %454, %451, %440
  %448 = landingpad { i8*, i32 }
          cleanup, !dbg !2308
  %449 = extractvalue { i8*, i32 } %448, 0, !dbg !2308
  store i8* %449, i8** %97, align 8, !dbg !2308
  %450 = extractvalue { i8*, i32 } %448, 1, !dbg !2308
  store i32 %450, i32* %98, align 4, !dbg !2308
  invoke void @_ZNSt3__112basic_stringIcNS_11char_traitsIcEENS_9allocatorIcEEED1Ev(%"class.std::__1::basic_string"* %96)
          to label %463 unwind label %471, !dbg !2307

; <label>:451:                                    ; preds = %437
  %452 = invoke i32 (i8*, ...) @printf(i8* getelementptr inbounds ([14 x i8], [14 x i8]* @.str.3, i32 0, i32 0))
          to label %453 unwind label %447, !dbg !2309

; <label>:453:                                    ; preds = %451
  store i8 0, i8* %99, align 1, !dbg !2311
  br label %454

; <label>:454:                                    ; preds = %453, %442
  %455 = load i8, i8* %99, align 1, !dbg !2312
  %456 = trunc i8 %455 to i1, !dbg !2312
  %457 = zext i1 %456 to i32, !dbg !2312
  %458 = invoke i32 (i8*, ...) @printf(i8* getelementptr inbounds ([15 x i8], [15 x i8]* @.str.4, i32 0, i32 0), i32 %457)
          to label %459 unwind label %447, !dbg !2313

; <label>:459:                                    ; preds = %454
  %460 = load i8, i8* %99, align 1, !dbg !2314
  %461 = trunc i8 %460 to i1, !dbg !2314
  invoke void @_ZNSt3__112basic_stringIcNS_11char_traitsIcEENS_9allocatorIcEEED1Ev(%"class.std::__1::basic_string"* %96)
          to label %462 unwind label %443, !dbg !2307

; <label>:462:                                    ; preds = %459
  call void @_ZNSt3__112basic_stringIcNS_11char_traitsIcEENS_9allocatorIcEEED1Ev(%"class.std::__1::basic_string"* %95), !dbg !2307
  ret i1 %461, !dbg !2307

; <label>:463:                                    ; preds = %447
  br label %464, !dbg !2307

; <label>:464:                                    ; preds = %463, %443
  invoke void @_ZNSt3__112basic_stringIcNS_11char_traitsIcEENS_9allocatorIcEEED1Ev(%"class.std::__1::basic_string"* %95)
          to label %465 unwind label %471, !dbg !2307

; <label>:465:                                    ; preds = %464
  br label %466, !dbg !2307

; <label>:466:                                    ; preds = %465
  %467 = load i8*, i8** %97, align 8, !dbg !2307
  %468 = load i32, i32* %98, align 4, !dbg !2307
  %469 = insertvalue { i8*, i32 } undef, i8* %467, 0, !dbg !2307
  %470 = insertvalue { i8*, i32 } %469, i32 %468, 1, !dbg !2307
  resume { i8*, i32 } %470, !dbg !2307

; <label>:471:                                    ; preds = %464, %447
  %472 = landingpad { i8*, i32 }
          catch i8* null, !dbg !2307
  %473 = extractvalue { i8*, i32 } %472, 0, !dbg !2307
  call void @__clang_call_terminate(i8* %473) #9, !dbg !2307
  unreachable, !dbg !2307
}

; Function Attrs: ssp uwtable
define zeroext i1 @_Z38testee_OR_operator_with_CPP_and_assertv() #0 personality i8* bitcast (i32 (...)* @__gxx_personality_v0 to i8*) !dbg !2315 {
  %1 = alloca %"class.std::__1::__libcpp_compressed_pair_imp"*, align 8
  call void @llvm.dbg.declare(metadata %"class.std::__1::__libcpp_compressed_pair_imp"** %1, metadata !1425, metadata !1428), !dbg !2316
  %2 = alloca %"class.std::__1::__compressed_pair"*, align 8
  call void @llvm.dbg.declare(metadata %"class.std::__1::__compressed_pair"** %2, metadata !1440, metadata !1428), !dbg !2322
  %3 = alloca %"class.std::__1::basic_string"*, align 8
  call void @llvm.dbg.declare(metadata %"class.std::__1::basic_string"** %3, metadata !1443, metadata !1428), !dbg !2323
  %4 = alloca %"class.std::__1::__libcpp_compressed_pair_imp"*, align 8
  call void @llvm.dbg.declare(metadata %"class.std::__1::__libcpp_compressed_pair_imp"** %4, metadata !1425, metadata !1428), !dbg !2324
  %5 = alloca %"class.std::__1::__compressed_pair"*, align 8
  call void @llvm.dbg.declare(metadata %"class.std::__1::__compressed_pair"** %5, metadata !1440, metadata !1428), !dbg !2328
  %6 = alloca %"class.std::__1::basic_string"*, align 8
  call void @llvm.dbg.declare(metadata %"class.std::__1::basic_string"** %6, metadata !1452, metadata !1428), !dbg !2329
  %7 = alloca %"class.std::__1::__libcpp_compressed_pair_imp"*, align 8
  call void @llvm.dbg.declare(metadata %"class.std::__1::__libcpp_compressed_pair_imp"** %7, metadata !1425, metadata !1428), !dbg !2330
  %8 = alloca %"class.std::__1::__compressed_pair"*, align 8
  call void @llvm.dbg.declare(metadata %"class.std::__1::__compressed_pair"** %8, metadata !1440, metadata !1428), !dbg !2334
  %9 = alloca %"class.std::__1::basic_string"*, align 8
  call void @llvm.dbg.declare(metadata %"class.std::__1::basic_string"** %9, metadata !1460, metadata !1428), !dbg !2335
  %10 = alloca %"class.std::__1::basic_string"*, align 8
  call void @llvm.dbg.declare(metadata %"class.std::__1::basic_string"** %10, metadata !1462, metadata !1428), !dbg !2336
  %11 = alloca i64, align 8
  %12 = alloca i8*, align 8
  call void @llvm.dbg.declare(metadata i8** %12, metadata !1464, metadata !1428), !dbg !2337
  %13 = alloca i64, align 8
  call void @llvm.dbg.declare(metadata i64* %13, metadata !1473, metadata !1428), !dbg !2339
  %14 = alloca i8*, align 8
  call void @llvm.dbg.declare(metadata i8** %14, metadata !1475, metadata !1428), !dbg !2340
  %15 = alloca i64, align 8
  call void @llvm.dbg.declare(metadata i64* %15, metadata !1477, metadata !1428), !dbg !2341
  %16 = alloca i64, align 8
  call void @llvm.dbg.declare(metadata i64* %16, metadata !1479, metadata !1428), !dbg !2342
  %17 = alloca i8*, align 8
  call void @llvm.dbg.declare(metadata i8** %17, metadata !1481, metadata !1428), !dbg !2343
  %18 = alloca i8*
  %19 = alloca i32
  %20 = alloca %"struct.std::__1::pair", align 8
  %21 = alloca i8*, align 8
  call void @llvm.dbg.declare(metadata i8** %21, metadata !1483, metadata !1428), !dbg !2344
  %22 = alloca %"class.std::__1::__libcpp_compressed_pair_imp"*, align 8
  call void @llvm.dbg.declare(metadata %"class.std::__1::__libcpp_compressed_pair_imp"** %22, metadata !1425, metadata !1428), !dbg !2347
  %23 = alloca %"class.std::__1::__compressed_pair"*, align 8
  call void @llvm.dbg.declare(metadata %"class.std::__1::__compressed_pair"** %23, metadata !1440, metadata !1428), !dbg !2352
  %24 = alloca %"class.std::__1::basic_string"*, align 8
  call void @llvm.dbg.declare(metadata %"class.std::__1::basic_string"** %24, metadata !1501, metadata !1428), !dbg !2353
  %25 = alloca i8*, align 8
  call void @llvm.dbg.declare(metadata i8** %25, metadata !1503, metadata !1428), !dbg !2354
  %26 = alloca i8*, align 8
  call void @llvm.dbg.declare(metadata i8** %26, metadata !1528, metadata !1428), !dbg !2358
  %27 = alloca %"class.std::__1::__libcpp_compressed_pair_imp"*, align 8
  call void @llvm.dbg.declare(metadata %"class.std::__1::__libcpp_compressed_pair_imp"** %27, metadata !1425, metadata !1428), !dbg !2359
  %28 = alloca %"class.std::__1::__compressed_pair"*, align 8
  call void @llvm.dbg.declare(metadata %"class.std::__1::__compressed_pair"** %28, metadata !1440, metadata !1428), !dbg !2362
  %29 = alloca %"class.std::__1::basic_string"*, align 8
  call void @llvm.dbg.declare(metadata %"class.std::__1::basic_string"** %29, metadata !1534, metadata !1428), !dbg !2363
  %30 = alloca %"class.std::__1::__libcpp_compressed_pair_imp"*, align 8
  call void @llvm.dbg.declare(metadata %"class.std::__1::__libcpp_compressed_pair_imp"** %30, metadata !1425, metadata !1428), !dbg !2364
  %31 = alloca %"class.std::__1::__compressed_pair"*, align 8
  call void @llvm.dbg.declare(metadata %"class.std::__1::__compressed_pair"** %31, metadata !1440, metadata !1428), !dbg !2368
  %32 = alloca %"class.std::__1::basic_string"*, align 8
  call void @llvm.dbg.declare(metadata %"class.std::__1::basic_string"** %32, metadata !1460, metadata !1428), !dbg !2369
  %33 = alloca %"class.std::__1::basic_string"*, align 8
  call void @llvm.dbg.declare(metadata %"class.std::__1::basic_string"** %33, metadata !1542, metadata !1428), !dbg !2370
  %34 = alloca %"class.std::__1::basic_string"*, align 8
  call void @llvm.dbg.declare(metadata %"class.std::__1::basic_string"** %34, metadata !1544, metadata !1428), !dbg !2371
  %35 = alloca %"class.std::__1::basic_string"*, align 8
  call void @llvm.dbg.declare(metadata %"class.std::__1::basic_string"** %35, metadata !1546, metadata !1428), !dbg !2372
  %36 = alloca i8*, align 8
  call void @llvm.dbg.declare(metadata i8** %36, metadata !1548, metadata !1428), !dbg !2373
  %37 = alloca i64, align 8
  call void @llvm.dbg.declare(metadata i64* %37, metadata !1550, metadata !1428), !dbg !2374
  %38 = alloca i8*
  %39 = alloca i32
  %40 = alloca %"class.std::__1::__libcpp_compressed_pair_imp"*, align 8
  call void @llvm.dbg.declare(metadata %"class.std::__1::__libcpp_compressed_pair_imp"** %40, metadata !1425, metadata !1428), !dbg !2375
  %41 = alloca %"class.std::__1::__compressed_pair"*, align 8
  call void @llvm.dbg.declare(metadata %"class.std::__1::__compressed_pair"** %41, metadata !1440, metadata !1428), !dbg !2381
  %42 = alloca %"class.std::__1::basic_string"*, align 8
  call void @llvm.dbg.declare(metadata %"class.std::__1::basic_string"** %42, metadata !1443, metadata !1428), !dbg !2382
  %43 = alloca %"class.std::__1::__libcpp_compressed_pair_imp"*, align 8
  call void @llvm.dbg.declare(metadata %"class.std::__1::__libcpp_compressed_pair_imp"** %43, metadata !1425, metadata !1428), !dbg !2383
  %44 = alloca %"class.std::__1::__compressed_pair"*, align 8
  call void @llvm.dbg.declare(metadata %"class.std::__1::__compressed_pair"** %44, metadata !1440, metadata !1428), !dbg !2387
  %45 = alloca %"class.std::__1::basic_string"*, align 8
  call void @llvm.dbg.declare(metadata %"class.std::__1::basic_string"** %45, metadata !1452, metadata !1428), !dbg !2388
  %46 = alloca %"class.std::__1::__libcpp_compressed_pair_imp"*, align 8
  call void @llvm.dbg.declare(metadata %"class.std::__1::__libcpp_compressed_pair_imp"** %46, metadata !1425, metadata !1428), !dbg !2389
  %47 = alloca %"class.std::__1::__compressed_pair"*, align 8
  call void @llvm.dbg.declare(metadata %"class.std::__1::__compressed_pair"** %47, metadata !1440, metadata !1428), !dbg !2393
  %48 = alloca %"class.std::__1::basic_string"*, align 8
  call void @llvm.dbg.declare(metadata %"class.std::__1::basic_string"** %48, metadata !1460, metadata !1428), !dbg !2394
  %49 = alloca %"class.std::__1::basic_string"*, align 8
  call void @llvm.dbg.declare(metadata %"class.std::__1::basic_string"** %49, metadata !1462, metadata !1428), !dbg !2395
  %50 = alloca i64, align 8
  %51 = alloca i8*, align 8
  call void @llvm.dbg.declare(metadata i8** %51, metadata !1464, metadata !1428), !dbg !2396
  %52 = alloca i64, align 8
  call void @llvm.dbg.declare(metadata i64* %52, metadata !1473, metadata !1428), !dbg !2398
  %53 = alloca i8*, align 8
  call void @llvm.dbg.declare(metadata i8** %53, metadata !1475, metadata !1428), !dbg !2399
  %54 = alloca i64, align 8
  call void @llvm.dbg.declare(metadata i64* %54, metadata !1477, metadata !1428), !dbg !2400
  %55 = alloca i64, align 8
  call void @llvm.dbg.declare(metadata i64* %55, metadata !1479, metadata !1428), !dbg !2401
  %56 = alloca i8*, align 8
  call void @llvm.dbg.declare(metadata i8** %56, metadata !1481, metadata !1428), !dbg !2402
  %57 = alloca i8*
  %58 = alloca i32
  %59 = alloca %"struct.std::__1::pair", align 8
  %60 = alloca i8*, align 8
  call void @llvm.dbg.declare(metadata i8** %60, metadata !1483, metadata !1428), !dbg !2403
  %61 = alloca %"class.std::__1::__libcpp_compressed_pair_imp"*, align 8
  call void @llvm.dbg.declare(metadata %"class.std::__1::__libcpp_compressed_pair_imp"** %61, metadata !1425, metadata !1428), !dbg !2406
  %62 = alloca %"class.std::__1::__compressed_pair"*, align 8
  call void @llvm.dbg.declare(metadata %"class.std::__1::__compressed_pair"** %62, metadata !1440, metadata !1428), !dbg !2411
  %63 = alloca %"class.std::__1::basic_string"*, align 8
  call void @llvm.dbg.declare(metadata %"class.std::__1::basic_string"** %63, metadata !1501, metadata !1428), !dbg !2412
  %64 = alloca i8*, align 8
  call void @llvm.dbg.declare(metadata i8** %64, metadata !1503, metadata !1428), !dbg !2413
  %65 = alloca i8*, align 8
  call void @llvm.dbg.declare(metadata i8** %65, metadata !1528, metadata !1428), !dbg !2417
  %66 = alloca %"class.std::__1::__libcpp_compressed_pair_imp"*, align 8
  call void @llvm.dbg.declare(metadata %"class.std::__1::__libcpp_compressed_pair_imp"** %66, metadata !1425, metadata !1428), !dbg !2418
  %67 = alloca %"class.std::__1::__compressed_pair"*, align 8
  call void @llvm.dbg.declare(metadata %"class.std::__1::__compressed_pair"** %67, metadata !1440, metadata !1428), !dbg !2421
  %68 = alloca %"class.std::__1::basic_string"*, align 8
  call void @llvm.dbg.declare(metadata %"class.std::__1::basic_string"** %68, metadata !1534, metadata !1428), !dbg !2422
  %69 = alloca %"class.std::__1::__libcpp_compressed_pair_imp"*, align 8
  call void @llvm.dbg.declare(metadata %"class.std::__1::__libcpp_compressed_pair_imp"** %69, metadata !1425, metadata !1428), !dbg !2423
  %70 = alloca %"class.std::__1::__compressed_pair"*, align 8
  call void @llvm.dbg.declare(metadata %"class.std::__1::__compressed_pair"** %70, metadata !1440, metadata !1428), !dbg !2427
  %71 = alloca %"class.std::__1::basic_string"*, align 8
  call void @llvm.dbg.declare(metadata %"class.std::__1::basic_string"** %71, metadata !1460, metadata !1428), !dbg !2428
  %72 = alloca %"class.std::__1::basic_string"*, align 8
  call void @llvm.dbg.declare(metadata %"class.std::__1::basic_string"** %72, metadata !1542, metadata !1428), !dbg !2429
  %73 = alloca %"class.std::__1::basic_string"*, align 8
  call void @llvm.dbg.declare(metadata %"class.std::__1::basic_string"** %73, metadata !1544, metadata !1428), !dbg !2430
  %74 = alloca %"class.std::__1::basic_string"*, align 8
  call void @llvm.dbg.declare(metadata %"class.std::__1::basic_string"** %74, metadata !1546, metadata !1428), !dbg !2431
  %75 = alloca i8*, align 8
  call void @llvm.dbg.declare(metadata i8** %75, metadata !1548, metadata !1428), !dbg !2432
  %76 = alloca i64, align 8
  call void @llvm.dbg.declare(metadata i64* %76, metadata !1550, metadata !1428), !dbg !2433
  %77 = alloca i8*
  %78 = alloca i32
  %79 = alloca %"class.std::__1::allocator"*, align 8
  call void @llvm.dbg.declare(metadata %"class.std::__1::allocator"** %79, metadata !1611, metadata !1428), !dbg !2434
  %80 = alloca %"class.std::__1::__libcpp_compressed_pair_imp"*, align 8
  call void @llvm.dbg.declare(metadata %"class.std::__1::__libcpp_compressed_pair_imp"** %80, metadata !1626, metadata !1428), !dbg !2441
  %81 = alloca %"class.std::__1::__compressed_pair"*, align 8
  call void @llvm.dbg.declare(metadata %"class.std::__1::__compressed_pair"** %81, metadata !1629, metadata !1428), !dbg !2442
  %82 = alloca %"class.std::__1::__compressed_pair"*, align 8
  call void @llvm.dbg.declare(metadata %"class.std::__1::__compressed_pair"** %82, metadata !1632, metadata !1428), !dbg !2443
  %83 = alloca %"class.std::__1::basic_string"*, align 8
  call void @llvm.dbg.declare(metadata %"class.std::__1::basic_string"** %83, metadata !1634, metadata !1428), !dbg !2444
  %84 = alloca i8*, align 8
  call void @llvm.dbg.declare(metadata i8** %84, metadata !1637, metadata !1428), !dbg !2445
  %85 = alloca %"class.std::__1::basic_string"*, align 8
  call void @llvm.dbg.declare(metadata %"class.std::__1::basic_string"** %85, metadata !1639, metadata !1428), !dbg !2446
  %86 = alloca i8*, align 8
  call void @llvm.dbg.declare(metadata i8** %86, metadata !1641, metadata !1428), !dbg !2447
  %87 = alloca %"class.std::__1::allocator"*, align 8
  call void @llvm.dbg.declare(metadata %"class.std::__1::allocator"** %87, metadata !1611, metadata !1428), !dbg !2448
  %88 = alloca %"class.std::__1::__libcpp_compressed_pair_imp"*, align 8
  call void @llvm.dbg.declare(metadata %"class.std::__1::__libcpp_compressed_pair_imp"** %88, metadata !1626, metadata !1428), !dbg !2455
  %89 = alloca %"class.std::__1::__compressed_pair"*, align 8
  call void @llvm.dbg.declare(metadata %"class.std::__1::__compressed_pair"** %89, metadata !1629, metadata !1428), !dbg !2456
  %90 = alloca %"class.std::__1::__compressed_pair"*, align 8
  call void @llvm.dbg.declare(metadata %"class.std::__1::__compressed_pair"** %90, metadata !1632, metadata !1428), !dbg !2457
  %91 = alloca %"class.std::__1::basic_string"*, align 8
  call void @llvm.dbg.declare(metadata %"class.std::__1::basic_string"** %91, metadata !1634, metadata !1428), !dbg !2458
  %92 = alloca i8*, align 8
  call void @llvm.dbg.declare(metadata i8** %92, metadata !1637, metadata !1428), !dbg !2459
  %93 = alloca %"class.std::__1::basic_string"*, align 8
  call void @llvm.dbg.declare(metadata %"class.std::__1::basic_string"** %93, metadata !1639, metadata !1428), !dbg !2460
  %94 = alloca i8*, align 8
  call void @llvm.dbg.declare(metadata i8** %94, metadata !1641, metadata !1428), !dbg !2461
  %95 = alloca %"class.std::__1::basic_string", align 8
  %96 = alloca %"class.std::__1::basic_string", align 8
  %97 = alloca i8*
  %98 = alloca i32
  call void @llvm.dbg.declare(metadata %"class.std::__1::basic_string"* %95, metadata !2462, metadata !1428), !dbg !2463
  store %"class.std::__1::basic_string"* %95, %"class.std::__1::basic_string"** %93, align 8, !dbg !2464
  store i8* getelementptr inbounds ([5 x i8], [5 x i8]* @.str, i32 0, i32 0), i8** %94, align 8, !dbg !2464
  %99 = load %"class.std::__1::basic_string"*, %"class.std::__1::basic_string"** %93, align 8, !dbg !2464
  %100 = load i8*, i8** %94, align 8, !dbg !2465
  store %"class.std::__1::basic_string"* %99, %"class.std::__1::basic_string"** %91, align 8, !dbg !2465
  store i8* %100, i8** %92, align 8, !dbg !2465
  %101 = load %"class.std::__1::basic_string"*, %"class.std::__1::basic_string"** %91, align 8, !dbg !2465
  %102 = bitcast %"class.std::__1::basic_string"* %101 to %"class.std::__1::__basic_string_common"*, !dbg !2466
  %103 = getelementptr inbounds %"class.std::__1::basic_string", %"class.std::__1::basic_string"* %101, i32 0, i32 0, !dbg !2467
  store %"class.std::__1::__compressed_pair"* %103, %"class.std::__1::__compressed_pair"** %90, align 8, !dbg !2467
  %104 = load %"class.std::__1::__compressed_pair"*, %"class.std::__1::__compressed_pair"** %90, align 8, !dbg !2467
  store %"class.std::__1::__compressed_pair"* %104, %"class.std::__1::__compressed_pair"** %89, align 8, !dbg !2468
  %105 = load %"class.std::__1::__compressed_pair"*, %"class.std::__1::__compressed_pair"** %89, align 8, !dbg !2468
  %106 = bitcast %"class.std::__1::__compressed_pair"* %105 to %"class.std::__1::__libcpp_compressed_pair_imp"*, !dbg !2469
  store %"class.std::__1::__libcpp_compressed_pair_imp"* %106, %"class.std::__1::__libcpp_compressed_pair_imp"** %88, align 8, !dbg !2470
  %107 = load %"class.std::__1::__libcpp_compressed_pair_imp"*, %"class.std::__1::__libcpp_compressed_pair_imp"** %88, align 8, !dbg !2470
  %108 = bitcast %"class.std::__1::__libcpp_compressed_pair_imp"* %107 to %"class.std::__1::allocator"*, !dbg !2471
  store %"class.std::__1::allocator"* %108, %"class.std::__1::allocator"** %87, align 8, !dbg !2472
  %109 = load %"class.std::__1::allocator"*, %"class.std::__1::allocator"** %87, align 8, !dbg !2472
  %110 = getelementptr inbounds %"class.std::__1::__libcpp_compressed_pair_imp", %"class.std::__1::__libcpp_compressed_pair_imp"* %107, i32 0, i32 0, !dbg !2473
  %111 = bitcast %"struct.std::__1::basic_string<char, std::__1::char_traits<char>, std::__1::allocator<char> >::__rep"* %110 to i8*, !dbg !2473
  call void @llvm.memset.p0i8.i64(i8* %111, i8 0, i64 24, i32 8, i1 false) #8, !dbg !2473
  %112 = load i8*, i8** %92, align 8, !dbg !2474
  %113 = load i8*, i8** %92, align 8, !dbg !2475
  %114 = call i64 @_ZNSt3__111char_traitsIcE6lengthEPKc(i8* %113), !dbg !2476
  call void @_ZNSt3__112basic_stringIcNS_11char_traitsIcEENS_9allocatorIcEEE6__initEPKcm(%"class.std::__1::basic_string"* %101, i8* %112, i64 %114), !dbg !2477
  call void @llvm.dbg.declare(metadata %"class.std::__1::basic_string"* %96, metadata !2478, metadata !1428), !dbg !2479
  store %"class.std::__1::basic_string"* %96, %"class.std::__1::basic_string"** %85, align 8, !dbg !2480
  store i8* getelementptr inbounds ([5 x i8], [5 x i8]* @.str.1, i32 0, i32 0), i8** %86, align 8, !dbg !2480
  %115 = load %"class.std::__1::basic_string"*, %"class.std::__1::basic_string"** %85, align 8, !dbg !2480
  %116 = load i8*, i8** %86, align 8, !dbg !2481
  store %"class.std::__1::basic_string"* %115, %"class.std::__1::basic_string"** %83, align 8, !dbg !2481
  store i8* %116, i8** %84, align 8, !dbg !2481
  %117 = load %"class.std::__1::basic_string"*, %"class.std::__1::basic_string"** %83, align 8, !dbg !2481
  %118 = bitcast %"class.std::__1::basic_string"* %117 to %"class.std::__1::__basic_string_common"*, !dbg !2482
  %119 = getelementptr inbounds %"class.std::__1::basic_string", %"class.std::__1::basic_string"* %117, i32 0, i32 0, !dbg !2483
  store %"class.std::__1::__compressed_pair"* %119, %"class.std::__1::__compressed_pair"** %82, align 8, !dbg !2483
  %120 = load %"class.std::__1::__compressed_pair"*, %"class.std::__1::__compressed_pair"** %82, align 8, !dbg !2483
  store %"class.std::__1::__compressed_pair"* %120, %"class.std::__1::__compressed_pair"** %81, align 8, !dbg !2484
  %121 = load %"class.std::__1::__compressed_pair"*, %"class.std::__1::__compressed_pair"** %81, align 8, !dbg !2484
  %122 = bitcast %"class.std::__1::__compressed_pair"* %121 to %"class.std::__1::__libcpp_compressed_pair_imp"*, !dbg !2485
  store %"class.std::__1::__libcpp_compressed_pair_imp"* %122, %"class.std::__1::__libcpp_compressed_pair_imp"** %80, align 8, !dbg !2486
  %123 = load %"class.std::__1::__libcpp_compressed_pair_imp"*, %"class.std::__1::__libcpp_compressed_pair_imp"** %80, align 8, !dbg !2486
  %124 = bitcast %"class.std::__1::__libcpp_compressed_pair_imp"* %123 to %"class.std::__1::allocator"*, !dbg !2487
  store %"class.std::__1::allocator"* %124, %"class.std::__1::allocator"** %79, align 8, !dbg !2488
  %125 = load %"class.std::__1::allocator"*, %"class.std::__1::allocator"** %79, align 8, !dbg !2488
  %126 = getelementptr inbounds %"class.std::__1::__libcpp_compressed_pair_imp", %"class.std::__1::__libcpp_compressed_pair_imp"* %123, i32 0, i32 0, !dbg !2489
  %127 = bitcast %"struct.std::__1::basic_string<char, std::__1::char_traits<char>, std::__1::allocator<char> >::__rep"* %126 to i8*, !dbg !2489
  call void @llvm.memset.p0i8.i64(i8* %127, i8 0, i64 24, i32 8, i1 false) #8, !dbg !2489
  %128 = load i8*, i8** %84, align 8, !dbg !2490
  %129 = load i8*, i8** %84, align 8, !dbg !2491
  %130 = invoke i64 @_ZNSt3__111char_traitsIcE6lengthEPKc(i8* %129)
          to label %131 unwind label %444, !dbg !2492

; <label>:131:                                    ; preds = %0
  invoke void @_ZNSt3__112basic_stringIcNS_11char_traitsIcEENS_9allocatorIcEEE6__initEPKcm(%"class.std::__1::basic_string"* %117, i8* %128, i64 %130)
          to label %132 unwind label %444, !dbg !2493

; <label>:132:                                    ; preds = %131
  br label %133, !dbg !2494

; <label>:133:                                    ; preds = %132
  store %"class.std::__1::basic_string"* %95, %"class.std::__1::basic_string"** %74, align 8, !dbg !2495
  store i8* getelementptr inbounds ([5 x i8], [5 x i8]* @.str, i32 0, i32 0), i8** %75, align 8, !dbg !2495
  store i64 0, i64* %76, align 8, !dbg !2495
  %134 = load %"class.std::__1::basic_string"*, %"class.std::__1::basic_string"** %74, align 8, !dbg !2495
  store %"class.std::__1::basic_string"* %134, %"class.std::__1::basic_string"** %73, align 8, !dbg !2496
  %135 = load %"class.std::__1::basic_string"*, %"class.std::__1::basic_string"** %73, align 8, !dbg !2496
  store %"class.std::__1::basic_string"* %135, %"class.std::__1::basic_string"** %72, align 8, !dbg !2497
  %136 = load %"class.std::__1::basic_string"*, %"class.std::__1::basic_string"** %72, align 8, !dbg !2497
  store %"class.std::__1::basic_string"* %136, %"class.std::__1::basic_string"** %71, align 8, !dbg !2498
  %137 = load %"class.std::__1::basic_string"*, %"class.std::__1::basic_string"** %71, align 8, !dbg !2498
  %138 = getelementptr inbounds %"class.std::__1::basic_string", %"class.std::__1::basic_string"* %137, i32 0, i32 0, !dbg !2499
  store %"class.std::__1::__compressed_pair"* %138, %"class.std::__1::__compressed_pair"** %70, align 8, !dbg !2500
  %139 = load %"class.std::__1::__compressed_pair"*, %"class.std::__1::__compressed_pair"** %70, align 8, !dbg !2500
  %140 = bitcast %"class.std::__1::__compressed_pair"* %139 to %"class.std::__1::__libcpp_compressed_pair_imp"*, !dbg !2501
  store %"class.std::__1::__libcpp_compressed_pair_imp"* %140, %"class.std::__1::__libcpp_compressed_pair_imp"** %69, align 8, !dbg !2501
  %141 = load %"class.std::__1::__libcpp_compressed_pair_imp"*, %"class.std::__1::__libcpp_compressed_pair_imp"** %69, align 8, !dbg !2501
  %142 = getelementptr inbounds %"class.std::__1::__libcpp_compressed_pair_imp", %"class.std::__1::__libcpp_compressed_pair_imp"* %141, i32 0, i32 0, !dbg !2502
  %143 = getelementptr inbounds %"struct.std::__1::basic_string<char, std::__1::char_traits<char>, std::__1::allocator<char> >::__rep", %"struct.std::__1::basic_string<char, std::__1::char_traits<char>, std::__1::allocator<char> >::__rep"* %142, i32 0, i32 0, !dbg !2503
  %144 = bitcast %union.anon* %143 to %"struct.std::__1::basic_string<char, std::__1::char_traits<char>, std::__1::allocator<char> >::__short"*, !dbg !2503
  %145 = getelementptr inbounds %"struct.std::__1::basic_string<char, std::__1::char_traits<char>, std::__1::allocator<char> >::__short", %"struct.std::__1::basic_string<char, std::__1::char_traits<char>, std::__1::allocator<char> >::__short"* %144, i32 0, i32 0, !dbg !2504
  %146 = bitcast %union.anon.0* %145 to i8*, !dbg !2504
  %147 = load i8, i8* %146, align 8, !dbg !2504
  %148 = zext i8 %147 to i32, !dbg !2499
  %149 = and i32 %148, 1, !dbg !2505
  %150 = icmp ne i32 %149, 0, !dbg !2499
  br i1 %150, label %151, label %162, !dbg !2498

; <label>:151:                                    ; preds = %133
  store %"class.std::__1::basic_string"* %136, %"class.std::__1::basic_string"** %63, align 8, !dbg !2506
  %152 = load %"class.std::__1::basic_string"*, %"class.std::__1::basic_string"** %63, align 8, !dbg !2506
  %153 = getelementptr inbounds %"class.std::__1::basic_string", %"class.std::__1::basic_string"* %152, i32 0, i32 0, !dbg !2507
  store %"class.std::__1::__compressed_pair"* %153, %"class.std::__1::__compressed_pair"** %62, align 8, !dbg !2508
  %154 = load %"class.std::__1::__compressed_pair"*, %"class.std::__1::__compressed_pair"** %62, align 8, !dbg !2508
  %155 = bitcast %"class.std::__1::__compressed_pair"* %154 to %"class.std::__1::__libcpp_compressed_pair_imp"*, !dbg !2509
  store %"class.std::__1::__libcpp_compressed_pair_imp"* %155, %"class.std::__1::__libcpp_compressed_pair_imp"** %61, align 8, !dbg !2509
  %156 = load %"class.std::__1::__libcpp_compressed_pair_imp"*, %"class.std::__1::__libcpp_compressed_pair_imp"** %61, align 8, !dbg !2509
  %157 = getelementptr inbounds %"class.std::__1::__libcpp_compressed_pair_imp", %"class.std::__1::__libcpp_compressed_pair_imp"* %156, i32 0, i32 0, !dbg !2510
  %158 = getelementptr inbounds %"struct.std::__1::basic_string<char, std::__1::char_traits<char>, std::__1::allocator<char> >::__rep", %"struct.std::__1::basic_string<char, std::__1::char_traits<char>, std::__1::allocator<char> >::__rep"* %157, i32 0, i32 0, !dbg !2511
  %159 = bitcast %union.anon* %158 to %"struct.std::__1::basic_string<char, std::__1::char_traits<char>, std::__1::allocator<char> >::__long"*, !dbg !2511
  %160 = getelementptr inbounds %"struct.std::__1::basic_string<char, std::__1::char_traits<char>, std::__1::allocator<char> >::__long", %"struct.std::__1::basic_string<char, std::__1::char_traits<char>, std::__1::allocator<char> >::__long"* %159, i32 0, i32 2, !dbg !2512
  %161 = load i8*, i8** %160, align 8, !dbg !2512
  br label %175, !dbg !2498

; <label>:162:                                    ; preds = %133
  store %"class.std::__1::basic_string"* %136, %"class.std::__1::basic_string"** %68, align 8, !dbg !2513
  %163 = load %"class.std::__1::basic_string"*, %"class.std::__1::basic_string"** %68, align 8, !dbg !2513
  %164 = getelementptr inbounds %"class.std::__1::basic_string", %"class.std::__1::basic_string"* %163, i32 0, i32 0, !dbg !2514
  store %"class.std::__1::__compressed_pair"* %164, %"class.std::__1::__compressed_pair"** %67, align 8, !dbg !2515
  %165 = load %"class.std::__1::__compressed_pair"*, %"class.std::__1::__compressed_pair"** %67, align 8, !dbg !2515
  %166 = bitcast %"class.std::__1::__compressed_pair"* %165 to %"class.std::__1::__libcpp_compressed_pair_imp"*, !dbg !2516
  store %"class.std::__1::__libcpp_compressed_pair_imp"* %166, %"class.std::__1::__libcpp_compressed_pair_imp"** %66, align 8, !dbg !2516
  %167 = load %"class.std::__1::__libcpp_compressed_pair_imp"*, %"class.std::__1::__libcpp_compressed_pair_imp"** %66, align 8, !dbg !2516
  %168 = getelementptr inbounds %"class.std::__1::__libcpp_compressed_pair_imp", %"class.std::__1::__libcpp_compressed_pair_imp"* %167, i32 0, i32 0, !dbg !2517
  %169 = getelementptr inbounds %"struct.std::__1::basic_string<char, std::__1::char_traits<char>, std::__1::allocator<char> >::__rep", %"struct.std::__1::basic_string<char, std::__1::char_traits<char>, std::__1::allocator<char> >::__rep"* %168, i32 0, i32 0, !dbg !2518
  %170 = bitcast %union.anon* %169 to %"struct.std::__1::basic_string<char, std::__1::char_traits<char>, std::__1::allocator<char> >::__short"*, !dbg !2518
  %171 = getelementptr inbounds %"struct.std::__1::basic_string<char, std::__1::char_traits<char>, std::__1::allocator<char> >::__short", %"struct.std::__1::basic_string<char, std::__1::char_traits<char>, std::__1::allocator<char> >::__short"* %170, i32 0, i32 1, !dbg !2519
  %172 = getelementptr inbounds [23 x i8], [23 x i8]* %171, i64 0, i64 0, !dbg !2514
  store i8* %172, i8** %65, align 8, !dbg !2520
  %173 = load i8*, i8** %65, align 8, !dbg !2521
  store i8* %173, i8** %64, align 8, !dbg !2522
  %174 = load i8*, i8** %64, align 8, !dbg !2523
  br label %175, !dbg !2498

; <label>:175:                                    ; preds = %162, %151
  %176 = phi i8* [ %161, %151 ], [ %174, %162 ], !dbg !2498
  store i8* %176, i8** %60, align 8, !dbg !2524
  %177 = load i8*, i8** %60, align 8, !dbg !2525
  store %"class.std::__1::basic_string"* %134, %"class.std::__1::basic_string"** %49, align 8, !dbg !2526
  %178 = load %"class.std::__1::basic_string"*, %"class.std::__1::basic_string"** %49, align 8, !dbg !2526
  store %"class.std::__1::basic_string"* %178, %"class.std::__1::basic_string"** %48, align 8, !dbg !2527
  %179 = load %"class.std::__1::basic_string"*, %"class.std::__1::basic_string"** %48, align 8, !dbg !2527
  %180 = getelementptr inbounds %"class.std::__1::basic_string", %"class.std::__1::basic_string"* %179, i32 0, i32 0, !dbg !2528
  store %"class.std::__1::__compressed_pair"* %180, %"class.std::__1::__compressed_pair"** %47, align 8, !dbg !2529
  %181 = load %"class.std::__1::__compressed_pair"*, %"class.std::__1::__compressed_pair"** %47, align 8, !dbg !2529
  %182 = bitcast %"class.std::__1::__compressed_pair"* %181 to %"class.std::__1::__libcpp_compressed_pair_imp"*, !dbg !2530
  store %"class.std::__1::__libcpp_compressed_pair_imp"* %182, %"class.std::__1::__libcpp_compressed_pair_imp"** %46, align 8, !dbg !2530
  %183 = load %"class.std::__1::__libcpp_compressed_pair_imp"*, %"class.std::__1::__libcpp_compressed_pair_imp"** %46, align 8, !dbg !2530
  %184 = getelementptr inbounds %"class.std::__1::__libcpp_compressed_pair_imp", %"class.std::__1::__libcpp_compressed_pair_imp"* %183, i32 0, i32 0, !dbg !2531
  %185 = getelementptr inbounds %"struct.std::__1::basic_string<char, std::__1::char_traits<char>, std::__1::allocator<char> >::__rep", %"struct.std::__1::basic_string<char, std::__1::char_traits<char>, std::__1::allocator<char> >::__rep"* %184, i32 0, i32 0, !dbg !2532
  %186 = bitcast %union.anon* %185 to %"struct.std::__1::basic_string<char, std::__1::char_traits<char>, std::__1::allocator<char> >::__short"*, !dbg !2532
  %187 = getelementptr inbounds %"struct.std::__1::basic_string<char, std::__1::char_traits<char>, std::__1::allocator<char> >::__short", %"struct.std::__1::basic_string<char, std::__1::char_traits<char>, std::__1::allocator<char> >::__short"* %186, i32 0, i32 0, !dbg !2533
  %188 = bitcast %union.anon.0* %187 to i8*, !dbg !2533
  %189 = load i8, i8* %188, align 8, !dbg !2533
  %190 = zext i8 %189 to i32, !dbg !2528
  %191 = and i32 %190, 1, !dbg !2534
  %192 = icmp ne i32 %191, 0, !dbg !2528
  br i1 %192, label %193, label %204, !dbg !2527

; <label>:193:                                    ; preds = %175
  store %"class.std::__1::basic_string"* %178, %"class.std::__1::basic_string"** %42, align 8, !dbg !2535
  %194 = load %"class.std::__1::basic_string"*, %"class.std::__1::basic_string"** %42, align 8, !dbg !2535
  %195 = getelementptr inbounds %"class.std::__1::basic_string", %"class.std::__1::basic_string"* %194, i32 0, i32 0, !dbg !2536
  store %"class.std::__1::__compressed_pair"* %195, %"class.std::__1::__compressed_pair"** %41, align 8, !dbg !2537
  %196 = load %"class.std::__1::__compressed_pair"*, %"class.std::__1::__compressed_pair"** %41, align 8, !dbg !2537
  %197 = bitcast %"class.std::__1::__compressed_pair"* %196 to %"class.std::__1::__libcpp_compressed_pair_imp"*, !dbg !2538
  store %"class.std::__1::__libcpp_compressed_pair_imp"* %197, %"class.std::__1::__libcpp_compressed_pair_imp"** %40, align 8, !dbg !2538
  %198 = load %"class.std::__1::__libcpp_compressed_pair_imp"*, %"class.std::__1::__libcpp_compressed_pair_imp"** %40, align 8, !dbg !2538
  %199 = getelementptr inbounds %"class.std::__1::__libcpp_compressed_pair_imp", %"class.std::__1::__libcpp_compressed_pair_imp"* %198, i32 0, i32 0, !dbg !2539
  %200 = getelementptr inbounds %"struct.std::__1::basic_string<char, std::__1::char_traits<char>, std::__1::allocator<char> >::__rep", %"struct.std::__1::basic_string<char, std::__1::char_traits<char>, std::__1::allocator<char> >::__rep"* %199, i32 0, i32 0, !dbg !2540
  %201 = bitcast %union.anon* %200 to %"struct.std::__1::basic_string<char, std::__1::char_traits<char>, std::__1::allocator<char> >::__long"*, !dbg !2540
  %202 = getelementptr inbounds %"struct.std::__1::basic_string<char, std::__1::char_traits<char>, std::__1::allocator<char> >::__long", %"struct.std::__1::basic_string<char, std::__1::char_traits<char>, std::__1::allocator<char> >::__long"* %201, i32 0, i32 1, !dbg !2541
  %203 = load i64, i64* %202, align 8, !dbg !2541
  br label %219, !dbg !2527

; <label>:204:                                    ; preds = %175
  store %"class.std::__1::basic_string"* %178, %"class.std::__1::basic_string"** %45, align 8, !dbg !2542
  %205 = load %"class.std::__1::basic_string"*, %"class.std::__1::basic_string"** %45, align 8, !dbg !2542
  %206 = getelementptr inbounds %"class.std::__1::basic_string", %"class.std::__1::basic_string"* %205, i32 0, i32 0, !dbg !2543
  store %"class.std::__1::__compressed_pair"* %206, %"class.std::__1::__compressed_pair"** %44, align 8, !dbg !2544
  %207 = load %"class.std::__1::__compressed_pair"*, %"class.std::__1::__compressed_pair"** %44, align 8, !dbg !2544
  %208 = bitcast %"class.std::__1::__compressed_pair"* %207 to %"class.std::__1::__libcpp_compressed_pair_imp"*, !dbg !2545
  store %"class.std::__1::__libcpp_compressed_pair_imp"* %208, %"class.std::__1::__libcpp_compressed_pair_imp"** %43, align 8, !dbg !2545
  %209 = load %"class.std::__1::__libcpp_compressed_pair_imp"*, %"class.std::__1::__libcpp_compressed_pair_imp"** %43, align 8, !dbg !2545
  %210 = getelementptr inbounds %"class.std::__1::__libcpp_compressed_pair_imp", %"class.std::__1::__libcpp_compressed_pair_imp"* %209, i32 0, i32 0, !dbg !2546
  %211 = getelementptr inbounds %"struct.std::__1::basic_string<char, std::__1::char_traits<char>, std::__1::allocator<char> >::__rep", %"struct.std::__1::basic_string<char, std::__1::char_traits<char>, std::__1::allocator<char> >::__rep"* %210, i32 0, i32 0, !dbg !2547
  %212 = bitcast %union.anon* %211 to %"struct.std::__1::basic_string<char, std::__1::char_traits<char>, std::__1::allocator<char> >::__short"*, !dbg !2547
  %213 = getelementptr inbounds %"struct.std::__1::basic_string<char, std::__1::char_traits<char>, std::__1::allocator<char> >::__short", %"struct.std::__1::basic_string<char, std::__1::char_traits<char>, std::__1::allocator<char> >::__short"* %212, i32 0, i32 0, !dbg !2548
  %214 = bitcast %union.anon.0* %213 to i8*, !dbg !2548
  %215 = load i8, i8* %214, align 8, !dbg !2548
  %216 = zext i8 %215 to i32, !dbg !2543
  %217 = ashr i32 %216, 1, !dbg !2549
  %218 = sext i32 %217 to i64, !dbg !2543
  br label %219, !dbg !2527

; <label>:219:                                    ; preds = %204, %193
  %220 = phi i64 [ %203, %193 ], [ %218, %204 ], !dbg !2527
  %221 = load i8*, i8** %75, align 8, !dbg !2550
  %222 = load i64, i64* %76, align 8, !dbg !2551
  %223 = load i8*, i8** %75, align 8, !dbg !2552
  %224 = invoke i64 @_ZNSt3__111char_traitsIcE6lengthEPKc(i8* %223)
          to label %225 unwind label %278, !dbg !2553

; <label>:225:                                    ; preds = %219
  store i8* %177, i8** %51, align 8, !dbg !2554
  store i64 %220, i64* %52, align 8, !dbg !2554
  store i8* %221, i8** %53, align 8, !dbg !2554
  store i64 %222, i64* %54, align 8, !dbg !2554
  store i64 %224, i64* %55, align 8, !dbg !2554
  %226 = load i64, i64* %54, align 8, !dbg !2555
  %227 = load i64, i64* %52, align 8, !dbg !2556
  %228 = icmp ugt i64 %226, %227, !dbg !2557
  br i1 %228, label %235, label %229, !dbg !2558

; <label>:229:                                    ; preds = %225
  %230 = load i64, i64* %52, align 8, !dbg !2559
  %231 = load i64, i64* %54, align 8, !dbg !2560
  %232 = sub i64 %230, %231, !dbg !2561
  %233 = load i64, i64* %55, align 8, !dbg !2562
  %234 = icmp ult i64 %232, %233, !dbg !2563
  br i1 %234, label %235, label %236, !dbg !2564

; <label>:235:                                    ; preds = %229, %225
  store i64 -1, i64* %50, align 8, !dbg !2565
  br label %283, !dbg !2565

; <label>:236:                                    ; preds = %229
  %237 = load i64, i64* %55, align 8, !dbg !2566
  %238 = icmp eq i64 %237, 0, !dbg !2567
  br i1 %238, label %239, label %241, !dbg !2568

; <label>:239:                                    ; preds = %236
  %240 = load i64, i64* %54, align 8, !dbg !2569
  store i64 %240, i64* %50, align 8, !dbg !2570
  br label %283, !dbg !2570

; <label>:241:                                    ; preds = %236
  %242 = load i8*, i8** %51, align 8, !dbg !2571
  %243 = load i64, i64* %54, align 8, !dbg !2572
  %244 = getelementptr inbounds i8, i8* %242, i64 %243, !dbg !2573
  %245 = load i8*, i8** %51, align 8, !dbg !2574
  %246 = load i64, i64* %52, align 8, !dbg !2575
  %247 = getelementptr inbounds i8, i8* %245, i64 %246, !dbg !2576
  %248 = load i8*, i8** %53, align 8, !dbg !2577
  %249 = load i8*, i8** %53, align 8, !dbg !2578
  %250 = load i64, i64* %55, align 8, !dbg !2579
  %251 = getelementptr inbounds i8, i8* %249, i64 %250, !dbg !2580
  %252 = invoke { i8*, i8* } @_ZNSt3__18__searchIPFbccEPKcS4_EENS_4pairIT0_S6_EES6_S6_T1_S8_T_NS_26random_access_iterator_tagESA_(i8* %244, i8* %247, i8* %248, i8* %251, i1 (i8, i8)* @_ZNSt3__111char_traitsIcE2eqEcc)
          to label %253 unwind label %267, !dbg !2581

; <label>:253:                                    ; preds = %241
  %254 = bitcast %"struct.std::__1::pair"* %59 to { i8*, i8* }*, !dbg !2581
  %255 = getelementptr inbounds { i8*, i8* }, { i8*, i8* }* %254, i32 0, i32 0, !dbg !2581
  %256 = extractvalue { i8*, i8* } %252, 0, !dbg !2581
  store i8* %256, i8** %255, align 8, !dbg !2581
  %257 = getelementptr inbounds { i8*, i8* }, { i8*, i8* }* %254, i32 0, i32 1, !dbg !2581
  %258 = extractvalue { i8*, i8* } %252, 1, !dbg !2581
  store i8* %258, i8** %257, align 8, !dbg !2581
  %259 = getelementptr inbounds %"struct.std::__1::pair", %"struct.std::__1::pair"* %59, i32 0, i32 0, !dbg !2582
  %260 = load i8*, i8** %259, align 8, !dbg !2582
  store i8* %260, i8** %56, align 8, !dbg !2402
  %261 = load i8*, i8** %56, align 8, !dbg !2583
  %262 = load i8*, i8** %51, align 8, !dbg !2584
  %263 = load i64, i64* %52, align 8, !dbg !2585
  %264 = getelementptr inbounds i8, i8* %262, i64 %263, !dbg !2586
  %265 = icmp eq i8* %261, %264, !dbg !2587
  br i1 %265, label %266, label %272, !dbg !2588

; <label>:266:                                    ; preds = %253
  store i64 -1, i64* %50, align 8, !dbg !2589
  br label %283, !dbg !2589

; <label>:267:                                    ; preds = %241
  %268 = landingpad { i8*, i32 }
          filter [0 x i8*] zeroinitializer, !dbg !2590
  %269 = extractvalue { i8*, i32 } %268, 0, !dbg !2590
  store i8* %269, i8** %57, align 8, !dbg !2590
  %270 = extractvalue { i8*, i32 } %268, 1, !dbg !2590
  store i32 %270, i32* %58, align 4, !dbg !2590
  %271 = load i8*, i8** %57, align 8, !dbg !2590
  call void @__cxa_call_unexpected(i8* %271) #9, !dbg !2590
  unreachable, !dbg !2590

; <label>:272:                                    ; preds = %253
  %273 = load i8*, i8** %56, align 8, !dbg !2591
  %274 = load i8*, i8** %51, align 8, !dbg !2592
  %275 = ptrtoint i8* %273 to i64, !dbg !2593
  %276 = ptrtoint i8* %274 to i64, !dbg !2593
  %277 = sub i64 %275, %276, !dbg !2593
  store i64 %277, i64* %50, align 8, !dbg !2594
  br label %283, !dbg !2594

; <label>:278:                                    ; preds = %219
  %279 = landingpad { i8*, i32 }
          filter [0 x i8*] zeroinitializer, !dbg !2595
  %280 = extractvalue { i8*, i32 } %279, 0, !dbg !2595
  store i8* %280, i8** %77, align 8, !dbg !2595
  %281 = extractvalue { i8*, i32 } %279, 1, !dbg !2595
  store i32 %281, i32* %78, align 4, !dbg !2595
  %282 = load i8*, i8** %77, align 8, !dbg !2596
  call void @__cxa_call_unexpected(i8* %282) #9, !dbg !2596
  unreachable, !dbg !2596

; <label>:283:                                    ; preds = %235, %239, %266, %272
  %284 = load i64, i64* %50, align 8, !dbg !2590
  %285 = icmp ne i64 %284, -1, !dbg !2495
  br i1 %285, label %439, label %286, !dbg !2495

; <label>:286:                                    ; preds = %283
  store %"class.std::__1::basic_string"* %96, %"class.std::__1::basic_string"** %35, align 8, !dbg !2495
  store i8* getelementptr inbounds ([5 x i8], [5 x i8]* @.str, i32 0, i32 0), i8** %36, align 8, !dbg !2495
  store i64 0, i64* %37, align 8, !dbg !2495
  %287 = load %"class.std::__1::basic_string"*, %"class.std::__1::basic_string"** %35, align 8, !dbg !2495
  store %"class.std::__1::basic_string"* %287, %"class.std::__1::basic_string"** %34, align 8, !dbg !2597
  %288 = load %"class.std::__1::basic_string"*, %"class.std::__1::basic_string"** %34, align 8, !dbg !2597
  store %"class.std::__1::basic_string"* %288, %"class.std::__1::basic_string"** %33, align 8, !dbg !2598
  %289 = load %"class.std::__1::basic_string"*, %"class.std::__1::basic_string"** %33, align 8, !dbg !2598
  store %"class.std::__1::basic_string"* %289, %"class.std::__1::basic_string"** %32, align 8, !dbg !2599
  %290 = load %"class.std::__1::basic_string"*, %"class.std::__1::basic_string"** %32, align 8, !dbg !2599
  %291 = getelementptr inbounds %"class.std::__1::basic_string", %"class.std::__1::basic_string"* %290, i32 0, i32 0, !dbg !2600
  store %"class.std::__1::__compressed_pair"* %291, %"class.std::__1::__compressed_pair"** %31, align 8, !dbg !2601
  %292 = load %"class.std::__1::__compressed_pair"*, %"class.std::__1::__compressed_pair"** %31, align 8, !dbg !2601
  %293 = bitcast %"class.std::__1::__compressed_pair"* %292 to %"class.std::__1::__libcpp_compressed_pair_imp"*, !dbg !2602
  store %"class.std::__1::__libcpp_compressed_pair_imp"* %293, %"class.std::__1::__libcpp_compressed_pair_imp"** %30, align 8, !dbg !2602
  %294 = load %"class.std::__1::__libcpp_compressed_pair_imp"*, %"class.std::__1::__libcpp_compressed_pair_imp"** %30, align 8, !dbg !2602
  %295 = getelementptr inbounds %"class.std::__1::__libcpp_compressed_pair_imp", %"class.std::__1::__libcpp_compressed_pair_imp"* %294, i32 0, i32 0, !dbg !2603
  %296 = getelementptr inbounds %"struct.std::__1::basic_string<char, std::__1::char_traits<char>, std::__1::allocator<char> >::__rep", %"struct.std::__1::basic_string<char, std::__1::char_traits<char>, std::__1::allocator<char> >::__rep"* %295, i32 0, i32 0, !dbg !2604
  %297 = bitcast %union.anon* %296 to %"struct.std::__1::basic_string<char, std::__1::char_traits<char>, std::__1::allocator<char> >::__short"*, !dbg !2604
  %298 = getelementptr inbounds %"struct.std::__1::basic_string<char, std::__1::char_traits<char>, std::__1::allocator<char> >::__short", %"struct.std::__1::basic_string<char, std::__1::char_traits<char>, std::__1::allocator<char> >::__short"* %297, i32 0, i32 0, !dbg !2605
  %299 = bitcast %union.anon.0* %298 to i8*, !dbg !2605
  %300 = load i8, i8* %299, align 8, !dbg !2605
  %301 = zext i8 %300 to i32, !dbg !2600
  %302 = and i32 %301, 1, !dbg !2606
  %303 = icmp ne i32 %302, 0, !dbg !2600
  br i1 %303, label %304, label %315, !dbg !2599

; <label>:304:                                    ; preds = %286
  store %"class.std::__1::basic_string"* %289, %"class.std::__1::basic_string"** %24, align 8, !dbg !2607
  %305 = load %"class.std::__1::basic_string"*, %"class.std::__1::basic_string"** %24, align 8, !dbg !2607
  %306 = getelementptr inbounds %"class.std::__1::basic_string", %"class.std::__1::basic_string"* %305, i32 0, i32 0, !dbg !2608
  store %"class.std::__1::__compressed_pair"* %306, %"class.std::__1::__compressed_pair"** %23, align 8, !dbg !2609
  %307 = load %"class.std::__1::__compressed_pair"*, %"class.std::__1::__compressed_pair"** %23, align 8, !dbg !2609
  %308 = bitcast %"class.std::__1::__compressed_pair"* %307 to %"class.std::__1::__libcpp_compressed_pair_imp"*, !dbg !2610
  store %"class.std::__1::__libcpp_compressed_pair_imp"* %308, %"class.std::__1::__libcpp_compressed_pair_imp"** %22, align 8, !dbg !2610
  %309 = load %"class.std::__1::__libcpp_compressed_pair_imp"*, %"class.std::__1::__libcpp_compressed_pair_imp"** %22, align 8, !dbg !2610
  %310 = getelementptr inbounds %"class.std::__1::__libcpp_compressed_pair_imp", %"class.std::__1::__libcpp_compressed_pair_imp"* %309, i32 0, i32 0, !dbg !2611
  %311 = getelementptr inbounds %"struct.std::__1::basic_string<char, std::__1::char_traits<char>, std::__1::allocator<char> >::__rep", %"struct.std::__1::basic_string<char, std::__1::char_traits<char>, std::__1::allocator<char> >::__rep"* %310, i32 0, i32 0, !dbg !2612
  %312 = bitcast %union.anon* %311 to %"struct.std::__1::basic_string<char, std::__1::char_traits<char>, std::__1::allocator<char> >::__long"*, !dbg !2612
  %313 = getelementptr inbounds %"struct.std::__1::basic_string<char, std::__1::char_traits<char>, std::__1::allocator<char> >::__long", %"struct.std::__1::basic_string<char, std::__1::char_traits<char>, std::__1::allocator<char> >::__long"* %312, i32 0, i32 2, !dbg !2613
  %314 = load i8*, i8** %313, align 8, !dbg !2613
  br label %328, !dbg !2599

; <label>:315:                                    ; preds = %286
  store %"class.std::__1::basic_string"* %289, %"class.std::__1::basic_string"** %29, align 8, !dbg !2614
  %316 = load %"class.std::__1::basic_string"*, %"class.std::__1::basic_string"** %29, align 8, !dbg !2614
  %317 = getelementptr inbounds %"class.std::__1::basic_string", %"class.std::__1::basic_string"* %316, i32 0, i32 0, !dbg !2615
  store %"class.std::__1::__compressed_pair"* %317, %"class.std::__1::__compressed_pair"** %28, align 8, !dbg !2616
  %318 = load %"class.std::__1::__compressed_pair"*, %"class.std::__1::__compressed_pair"** %28, align 8, !dbg !2616
  %319 = bitcast %"class.std::__1::__compressed_pair"* %318 to %"class.std::__1::__libcpp_compressed_pair_imp"*, !dbg !2617
  store %"class.std::__1::__libcpp_compressed_pair_imp"* %319, %"class.std::__1::__libcpp_compressed_pair_imp"** %27, align 8, !dbg !2617
  %320 = load %"class.std::__1::__libcpp_compressed_pair_imp"*, %"class.std::__1::__libcpp_compressed_pair_imp"** %27, align 8, !dbg !2617
  %321 = getelementptr inbounds %"class.std::__1::__libcpp_compressed_pair_imp", %"class.std::__1::__libcpp_compressed_pair_imp"* %320, i32 0, i32 0, !dbg !2618
  %322 = getelementptr inbounds %"struct.std::__1::basic_string<char, std::__1::char_traits<char>, std::__1::allocator<char> >::__rep", %"struct.std::__1::basic_string<char, std::__1::char_traits<char>, std::__1::allocator<char> >::__rep"* %321, i32 0, i32 0, !dbg !2619
  %323 = bitcast %union.anon* %322 to %"struct.std::__1::basic_string<char, std::__1::char_traits<char>, std::__1::allocator<char> >::__short"*, !dbg !2619
  %324 = getelementptr inbounds %"struct.std::__1::basic_string<char, std::__1::char_traits<char>, std::__1::allocator<char> >::__short", %"struct.std::__1::basic_string<char, std::__1::char_traits<char>, std::__1::allocator<char> >::__short"* %323, i32 0, i32 1, !dbg !2620
  %325 = getelementptr inbounds [23 x i8], [23 x i8]* %324, i64 0, i64 0, !dbg !2615
  store i8* %325, i8** %26, align 8, !dbg !2621
  %326 = load i8*, i8** %26, align 8, !dbg !2622
  store i8* %326, i8** %25, align 8, !dbg !2623
  %327 = load i8*, i8** %25, align 8, !dbg !2624
  br label %328, !dbg !2599

; <label>:328:                                    ; preds = %315, %304
  %329 = phi i8* [ %314, %304 ], [ %327, %315 ], !dbg !2599
  store i8* %329, i8** %21, align 8, !dbg !2625
  %330 = load i8*, i8** %21, align 8, !dbg !2626
  store %"class.std::__1::basic_string"* %287, %"class.std::__1::basic_string"** %10, align 8, !dbg !2627
  %331 = load %"class.std::__1::basic_string"*, %"class.std::__1::basic_string"** %10, align 8, !dbg !2627
  store %"class.std::__1::basic_string"* %331, %"class.std::__1::basic_string"** %9, align 8, !dbg !2628
  %332 = load %"class.std::__1::basic_string"*, %"class.std::__1::basic_string"** %9, align 8, !dbg !2628
  %333 = getelementptr inbounds %"class.std::__1::basic_string", %"class.std::__1::basic_string"* %332, i32 0, i32 0, !dbg !2629
  store %"class.std::__1::__compressed_pair"* %333, %"class.std::__1::__compressed_pair"** %8, align 8, !dbg !2630
  %334 = load %"class.std::__1::__compressed_pair"*, %"class.std::__1::__compressed_pair"** %8, align 8, !dbg !2630
  %335 = bitcast %"class.std::__1::__compressed_pair"* %334 to %"class.std::__1::__libcpp_compressed_pair_imp"*, !dbg !2631
  store %"class.std::__1::__libcpp_compressed_pair_imp"* %335, %"class.std::__1::__libcpp_compressed_pair_imp"** %7, align 8, !dbg !2631
  %336 = load %"class.std::__1::__libcpp_compressed_pair_imp"*, %"class.std::__1::__libcpp_compressed_pair_imp"** %7, align 8, !dbg !2631
  %337 = getelementptr inbounds %"class.std::__1::__libcpp_compressed_pair_imp", %"class.std::__1::__libcpp_compressed_pair_imp"* %336, i32 0, i32 0, !dbg !2632
  %338 = getelementptr inbounds %"struct.std::__1::basic_string<char, std::__1::char_traits<char>, std::__1::allocator<char> >::__rep", %"struct.std::__1::basic_string<char, std::__1::char_traits<char>, std::__1::allocator<char> >::__rep"* %337, i32 0, i32 0, !dbg !2633
  %339 = bitcast %union.anon* %338 to %"struct.std::__1::basic_string<char, std::__1::char_traits<char>, std::__1::allocator<char> >::__short"*, !dbg !2633
  %340 = getelementptr inbounds %"struct.std::__1::basic_string<char, std::__1::char_traits<char>, std::__1::allocator<char> >::__short", %"struct.std::__1::basic_string<char, std::__1::char_traits<char>, std::__1::allocator<char> >::__short"* %339, i32 0, i32 0, !dbg !2634
  %341 = bitcast %union.anon.0* %340 to i8*, !dbg !2634
  %342 = load i8, i8* %341, align 8, !dbg !2634
  %343 = zext i8 %342 to i32, !dbg !2629
  %344 = and i32 %343, 1, !dbg !2635
  %345 = icmp ne i32 %344, 0, !dbg !2629
  br i1 %345, label %346, label %357, !dbg !2628

; <label>:346:                                    ; preds = %328
  store %"class.std::__1::basic_string"* %331, %"class.std::__1::basic_string"** %3, align 8, !dbg !2636
  %347 = load %"class.std::__1::basic_string"*, %"class.std::__1::basic_string"** %3, align 8, !dbg !2636
  %348 = getelementptr inbounds %"class.std::__1::basic_string", %"class.std::__1::basic_string"* %347, i32 0, i32 0, !dbg !2637
  store %"class.std::__1::__compressed_pair"* %348, %"class.std::__1::__compressed_pair"** %2, align 8, !dbg !2638
  %349 = load %"class.std::__1::__compressed_pair"*, %"class.std::__1::__compressed_pair"** %2, align 8, !dbg !2638
  %350 = bitcast %"class.std::__1::__compressed_pair"* %349 to %"class.std::__1::__libcpp_compressed_pair_imp"*, !dbg !2639
  store %"class.std::__1::__libcpp_compressed_pair_imp"* %350, %"class.std::__1::__libcpp_compressed_pair_imp"** %1, align 8, !dbg !2639
  %351 = load %"class.std::__1::__libcpp_compressed_pair_imp"*, %"class.std::__1::__libcpp_compressed_pair_imp"** %1, align 8, !dbg !2639
  %352 = getelementptr inbounds %"class.std::__1::__libcpp_compressed_pair_imp", %"class.std::__1::__libcpp_compressed_pair_imp"* %351, i32 0, i32 0, !dbg !2640
  %353 = getelementptr inbounds %"struct.std::__1::basic_string<char, std::__1::char_traits<char>, std::__1::allocator<char> >::__rep", %"struct.std::__1::basic_string<char, std::__1::char_traits<char>, std::__1::allocator<char> >::__rep"* %352, i32 0, i32 0, !dbg !2641
  %354 = bitcast %union.anon* %353 to %"struct.std::__1::basic_string<char, std::__1::char_traits<char>, std::__1::allocator<char> >::__long"*, !dbg !2641
  %355 = getelementptr inbounds %"struct.std::__1::basic_string<char, std::__1::char_traits<char>, std::__1::allocator<char> >::__long", %"struct.std::__1::basic_string<char, std::__1::char_traits<char>, std::__1::allocator<char> >::__long"* %354, i32 0, i32 1, !dbg !2642
  %356 = load i64, i64* %355, align 8, !dbg !2642
  br label %372, !dbg !2628

; <label>:357:                                    ; preds = %328
  store %"class.std::__1::basic_string"* %331, %"class.std::__1::basic_string"** %6, align 8, !dbg !2643
  %358 = load %"class.std::__1::basic_string"*, %"class.std::__1::basic_string"** %6, align 8, !dbg !2643
  %359 = getelementptr inbounds %"class.std::__1::basic_string", %"class.std::__1::basic_string"* %358, i32 0, i32 0, !dbg !2644
  store %"class.std::__1::__compressed_pair"* %359, %"class.std::__1::__compressed_pair"** %5, align 8, !dbg !2645
  %360 = load %"class.std::__1::__compressed_pair"*, %"class.std::__1::__compressed_pair"** %5, align 8, !dbg !2645
  %361 = bitcast %"class.std::__1::__compressed_pair"* %360 to %"class.std::__1::__libcpp_compressed_pair_imp"*, !dbg !2646
  store %"class.std::__1::__libcpp_compressed_pair_imp"* %361, %"class.std::__1::__libcpp_compressed_pair_imp"** %4, align 8, !dbg !2646
  %362 = load %"class.std::__1::__libcpp_compressed_pair_imp"*, %"class.std::__1::__libcpp_compressed_pair_imp"** %4, align 8, !dbg !2646
  %363 = getelementptr inbounds %"class.std::__1::__libcpp_compressed_pair_imp", %"class.std::__1::__libcpp_compressed_pair_imp"* %362, i32 0, i32 0, !dbg !2647
  %364 = getelementptr inbounds %"struct.std::__1::basic_string<char, std::__1::char_traits<char>, std::__1::allocator<char> >::__rep", %"struct.std::__1::basic_string<char, std::__1::char_traits<char>, std::__1::allocator<char> >::__rep"* %363, i32 0, i32 0, !dbg !2648
  %365 = bitcast %union.anon* %364 to %"struct.std::__1::basic_string<char, std::__1::char_traits<char>, std::__1::allocator<char> >::__short"*, !dbg !2648
  %366 = getelementptr inbounds %"struct.std::__1::basic_string<char, std::__1::char_traits<char>, std::__1::allocator<char> >::__short", %"struct.std::__1::basic_string<char, std::__1::char_traits<char>, std::__1::allocator<char> >::__short"* %365, i32 0, i32 0, !dbg !2649
  %367 = bitcast %union.anon.0* %366 to i8*, !dbg !2649
  %368 = load i8, i8* %367, align 8, !dbg !2649
  %369 = zext i8 %368 to i32, !dbg !2644
  %370 = ashr i32 %369, 1, !dbg !2650
  %371 = sext i32 %370 to i64, !dbg !2644
  br label %372, !dbg !2628

; <label>:372:                                    ; preds = %357, %346
  %373 = phi i64 [ %356, %346 ], [ %371, %357 ], !dbg !2628
  %374 = load i8*, i8** %36, align 8, !dbg !2651
  %375 = load i64, i64* %37, align 8, !dbg !2652
  %376 = load i8*, i8** %36, align 8, !dbg !2653
  %377 = invoke i64 @_ZNSt3__111char_traitsIcE6lengthEPKc(i8* %376)
          to label %378 unwind label %431, !dbg !2654

; <label>:378:                                    ; preds = %372
  store i8* %330, i8** %12, align 8, !dbg !2655
  store i64 %373, i64* %13, align 8, !dbg !2655
  store i8* %374, i8** %14, align 8, !dbg !2655
  store i64 %375, i64* %15, align 8, !dbg !2655
  store i64 %377, i64* %16, align 8, !dbg !2655
  %379 = load i64, i64* %15, align 8, !dbg !2656
  %380 = load i64, i64* %13, align 8, !dbg !2657
  %381 = icmp ugt i64 %379, %380, !dbg !2658
  br i1 %381, label %388, label %382, !dbg !2659

; <label>:382:                                    ; preds = %378
  %383 = load i64, i64* %13, align 8, !dbg !2660
  %384 = load i64, i64* %15, align 8, !dbg !2661
  %385 = sub i64 %383, %384, !dbg !2662
  %386 = load i64, i64* %16, align 8, !dbg !2663
  %387 = icmp ult i64 %385, %386, !dbg !2664
  br i1 %387, label %388, label %389, !dbg !2665

; <label>:388:                                    ; preds = %382, %378
  store i64 -1, i64* %11, align 8, !dbg !2666
  br label %436, !dbg !2666

; <label>:389:                                    ; preds = %382
  %390 = load i64, i64* %16, align 8, !dbg !2667
  %391 = icmp eq i64 %390, 0, !dbg !2668
  br i1 %391, label %392, label %394, !dbg !2669

; <label>:392:                                    ; preds = %389
  %393 = load i64, i64* %15, align 8, !dbg !2670
  store i64 %393, i64* %11, align 8, !dbg !2671
  br label %436, !dbg !2671

; <label>:394:                                    ; preds = %389
  %395 = load i8*, i8** %12, align 8, !dbg !2672
  %396 = load i64, i64* %15, align 8, !dbg !2673
  %397 = getelementptr inbounds i8, i8* %395, i64 %396, !dbg !2674
  %398 = load i8*, i8** %12, align 8, !dbg !2675
  %399 = load i64, i64* %13, align 8, !dbg !2676
  %400 = getelementptr inbounds i8, i8* %398, i64 %399, !dbg !2677
  %401 = load i8*, i8** %14, align 8, !dbg !2678
  %402 = load i8*, i8** %14, align 8, !dbg !2679
  %403 = load i64, i64* %16, align 8, !dbg !2680
  %404 = getelementptr inbounds i8, i8* %402, i64 %403, !dbg !2681
  %405 = invoke { i8*, i8* } @_ZNSt3__18__searchIPFbccEPKcS4_EENS_4pairIT0_S6_EES6_S6_T1_S8_T_NS_26random_access_iterator_tagESA_(i8* %397, i8* %400, i8* %401, i8* %404, i1 (i8, i8)* @_ZNSt3__111char_traitsIcE2eqEcc)
          to label %406 unwind label %420, !dbg !2682

; <label>:406:                                    ; preds = %394
  %407 = bitcast %"struct.std::__1::pair"* %20 to { i8*, i8* }*, !dbg !2682
  %408 = getelementptr inbounds { i8*, i8* }, { i8*, i8* }* %407, i32 0, i32 0, !dbg !2682
  %409 = extractvalue { i8*, i8* } %405, 0, !dbg !2682
  store i8* %409, i8** %408, align 8, !dbg !2682
  %410 = getelementptr inbounds { i8*, i8* }, { i8*, i8* }* %407, i32 0, i32 1, !dbg !2682
  %411 = extractvalue { i8*, i8* } %405, 1, !dbg !2682
  store i8* %411, i8** %410, align 8, !dbg !2682
  %412 = getelementptr inbounds %"struct.std::__1::pair", %"struct.std::__1::pair"* %20, i32 0, i32 0, !dbg !2683
  %413 = load i8*, i8** %412, align 8, !dbg !2683
  store i8* %413, i8** %17, align 8, !dbg !2343
  %414 = load i8*, i8** %17, align 8, !dbg !2684
  %415 = load i8*, i8** %12, align 8, !dbg !2685
  %416 = load i64, i64* %13, align 8, !dbg !2686
  %417 = getelementptr inbounds i8, i8* %415, i64 %416, !dbg !2687
  %418 = icmp eq i8* %414, %417, !dbg !2688
  br i1 %418, label %419, label %425, !dbg !2689

; <label>:419:                                    ; preds = %406
  store i64 -1, i64* %11, align 8, !dbg !2690
  br label %436, !dbg !2690

; <label>:420:                                    ; preds = %394
  %421 = landingpad { i8*, i32 }
          filter [0 x i8*] zeroinitializer, !dbg !2691
  %422 = extractvalue { i8*, i32 } %421, 0, !dbg !2691
  store i8* %422, i8** %18, align 8, !dbg !2691
  %423 = extractvalue { i8*, i32 } %421, 1, !dbg !2691
  store i32 %423, i32* %19, align 4, !dbg !2691
  %424 = load i8*, i8** %18, align 8, !dbg !2691
  call void @__cxa_call_unexpected(i8* %424) #9, !dbg !2691
  unreachable, !dbg !2691

; <label>:425:                                    ; preds = %406
  %426 = load i8*, i8** %17, align 8, !dbg !2692
  %427 = load i8*, i8** %12, align 8, !dbg !2693
  %428 = ptrtoint i8* %426 to i64, !dbg !2694
  %429 = ptrtoint i8* %427 to i64, !dbg !2694
  %430 = sub i64 %428, %429, !dbg !2694
  store i64 %430, i64* %11, align 8, !dbg !2695
  br label %436, !dbg !2695

; <label>:431:                                    ; preds = %372
  %432 = landingpad { i8*, i32 }
          filter [0 x i8*] zeroinitializer, !dbg !2696
  %433 = extractvalue { i8*, i32 } %432, 0, !dbg !2696
  store i8* %433, i8** %38, align 8, !dbg !2696
  %434 = extractvalue { i8*, i32 } %432, 1, !dbg !2696
  store i32 %434, i32* %39, align 4, !dbg !2696
  %435 = load i8*, i8** %38, align 8, !dbg !2697
  call void @__cxa_call_unexpected(i8* %435) #9, !dbg !2697
  unreachable, !dbg !2697

; <label>:436:                                    ; preds = %388, %392, %419, %425
  %437 = load i64, i64* %11, align 8, !dbg !2691
  %438 = icmp ne i64 %437, -1, !dbg !2495
  br label %439, !dbg !2495

; <label>:439:                                    ; preds = %436, %283
  %440 = phi i1 [ true, %283 ], [ %438, %436 ]
  %441 = xor i1 %440, true, !dbg !2495
  br i1 %441, label %442, label %453, !dbg !2495

; <label>:442:                                    ; preds = %439
  invoke void @__assert_rtn(i8* getelementptr inbounds ([39 x i8], [39 x i8]* @__func__._Z38testee_OR_operator_with_CPP_and_assertv, i32 0, i32 0), i8* getelementptr inbounds ([26 x i8], [26 x i8]* @.str.5, i32 0, i32 0), i32 46, i8* getelementptr inbounds ([91 x i8], [91 x i8]* @.str.6, i32 0, i32 0)) #10
          to label %443 unwind label %448, !dbg !2495

; <label>:443:                                    ; preds = %442
  unreachable, !dbg !2495

; <label>:444:                                    ; preds = %131, %0, %454
  %445 = landingpad { i8*, i32 }
          cleanup, !dbg !2698
  %446 = extractvalue { i8*, i32 } %445, 0, !dbg !2698
  store i8* %446, i8** %97, align 8, !dbg !2698
  %447 = extractvalue { i8*, i32 } %445, 1, !dbg !2698
  store i32 %447, i32* %98, align 4, !dbg !2698
  br label %457, !dbg !2698

; <label>:448:                                    ; preds = %442
  %449 = landingpad { i8*, i32 }
          cleanup, !dbg !2698
  %450 = extractvalue { i8*, i32 } %449, 0, !dbg !2698
  store i8* %450, i8** %97, align 8, !dbg !2698
  %451 = extractvalue { i8*, i32 } %449, 1, !dbg !2698
  store i32 %451, i32* %98, align 4, !dbg !2698
  invoke void @_ZNSt3__112basic_stringIcNS_11char_traitsIcEENS_9allocatorIcEEED1Ev(%"class.std::__1::basic_string"* %96)
          to label %456 unwind label %464, !dbg !2698
                                                  ; No predecessors!
  br label %454, !dbg !2495

; <label>:453:                                    ; preds = %439
  br label %454, !dbg !2495

; <label>:454:                                    ; preds = %453, %452
  invoke void @_ZNSt3__112basic_stringIcNS_11char_traitsIcEENS_9allocatorIcEEED1Ev(%"class.std::__1::basic_string"* %96)
          to label %455 unwind label %444, !dbg !2698

; <label>:455:                                    ; preds = %454
  call void @_ZNSt3__112basic_stringIcNS_11char_traitsIcEENS_9allocatorIcEEED1Ev(%"class.std::__1::basic_string"* %95), !dbg !2698
  ret i1 true, !dbg !2698

; <label>:456:                                    ; preds = %448
  br label %457, !dbg !2698

; <label>:457:                                    ; preds = %456, %444
  invoke void @_ZNSt3__112basic_stringIcNS_11char_traitsIcEENS_9allocatorIcEEED1Ev(%"class.std::__1::basic_string"* %95)
          to label %458 unwind label %464, !dbg !2698

; <label>:458:                                    ; preds = %457
  br label %459, !dbg !2698

; <label>:459:                                    ; preds = %458
  %460 = load i8*, i8** %97, align 8, !dbg !2698
  %461 = load i32, i32* %98, align 4, !dbg !2698
  %462 = insertvalue { i8*, i32 } undef, i8* %460, 0, !dbg !2698
  %463 = insertvalue { i8*, i32 } %462, i32 %461, 1, !dbg !2698
  resume { i8*, i32 } %463, !dbg !2698

; <label>:464:                                    ; preds = %457, %448
  %465 = landingpad { i8*, i32 }
          catch i8* null, !dbg !2698
  %466 = extractvalue { i8*, i32 } %465, 0, !dbg !2698
  call void @__clang_call_terminate(i8* %466) #9, !dbg !2698
  unreachable, !dbg !2698
}

; Function Attrs: noreturn
declare void @__assert_rtn(i8*, i8*, i32, i8*) #4

; Function Attrs: ssp uwtable
define zeroext i1 @_Z28testee_AND_operator_with_CPPv() #0 personality i8* bitcast (i32 (...)* @__gxx_personality_v0 to i8*) !dbg !2699 {
  %1 = alloca %"class.std::__1::__libcpp_compressed_pair_imp"*, align 8
  call void @llvm.dbg.declare(metadata %"class.std::__1::__libcpp_compressed_pair_imp"** %1, metadata !1425, metadata !1428), !dbg !2700
  %2 = alloca %"class.std::__1::__compressed_pair"*, align 8
  call void @llvm.dbg.declare(metadata %"class.std::__1::__compressed_pair"** %2, metadata !1440, metadata !1428), !dbg !2707
  %3 = alloca %"class.std::__1::basic_string"*, align 8
  call void @llvm.dbg.declare(metadata %"class.std::__1::basic_string"** %3, metadata !1443, metadata !1428), !dbg !2708
  %4 = alloca %"class.std::__1::__libcpp_compressed_pair_imp"*, align 8
  call void @llvm.dbg.declare(metadata %"class.std::__1::__libcpp_compressed_pair_imp"** %4, metadata !1425, metadata !1428), !dbg !2709
  %5 = alloca %"class.std::__1::__compressed_pair"*, align 8
  call void @llvm.dbg.declare(metadata %"class.std::__1::__compressed_pair"** %5, metadata !1440, metadata !1428), !dbg !2713
  %6 = alloca %"class.std::__1::basic_string"*, align 8
  call void @llvm.dbg.declare(metadata %"class.std::__1::basic_string"** %6, metadata !1452, metadata !1428), !dbg !2714
  %7 = alloca %"class.std::__1::__libcpp_compressed_pair_imp"*, align 8
  call void @llvm.dbg.declare(metadata %"class.std::__1::__libcpp_compressed_pair_imp"** %7, metadata !1425, metadata !1428), !dbg !2715
  %8 = alloca %"class.std::__1::__compressed_pair"*, align 8
  call void @llvm.dbg.declare(metadata %"class.std::__1::__compressed_pair"** %8, metadata !1440, metadata !1428), !dbg !2719
  %9 = alloca %"class.std::__1::basic_string"*, align 8
  call void @llvm.dbg.declare(metadata %"class.std::__1::basic_string"** %9, metadata !1460, metadata !1428), !dbg !2720
  %10 = alloca %"class.std::__1::basic_string"*, align 8
  call void @llvm.dbg.declare(metadata %"class.std::__1::basic_string"** %10, metadata !1462, metadata !1428), !dbg !2721
  %11 = alloca i64, align 8
  %12 = alloca i8*, align 8
  call void @llvm.dbg.declare(metadata i8** %12, metadata !1464, metadata !1428), !dbg !2722
  %13 = alloca i64, align 8
  call void @llvm.dbg.declare(metadata i64* %13, metadata !1473, metadata !1428), !dbg !2724
  %14 = alloca i8*, align 8
  call void @llvm.dbg.declare(metadata i8** %14, metadata !1475, metadata !1428), !dbg !2725
  %15 = alloca i64, align 8
  call void @llvm.dbg.declare(metadata i64* %15, metadata !1477, metadata !1428), !dbg !2726
  %16 = alloca i64, align 8
  call void @llvm.dbg.declare(metadata i64* %16, metadata !1479, metadata !1428), !dbg !2727
  %17 = alloca i8*, align 8
  call void @llvm.dbg.declare(metadata i8** %17, metadata !1481, metadata !1428), !dbg !2728
  %18 = alloca i8*
  %19 = alloca i32
  %20 = alloca %"struct.std::__1::pair", align 8
  %21 = alloca i8*, align 8
  call void @llvm.dbg.declare(metadata i8** %21, metadata !1483, metadata !1428), !dbg !2729
  %22 = alloca %"class.std::__1::__libcpp_compressed_pair_imp"*, align 8
  call void @llvm.dbg.declare(metadata %"class.std::__1::__libcpp_compressed_pair_imp"** %22, metadata !1425, metadata !1428), !dbg !2732
  %23 = alloca %"class.std::__1::__compressed_pair"*, align 8
  call void @llvm.dbg.declare(metadata %"class.std::__1::__compressed_pair"** %23, metadata !1440, metadata !1428), !dbg !2737
  %24 = alloca %"class.std::__1::basic_string"*, align 8
  call void @llvm.dbg.declare(metadata %"class.std::__1::basic_string"** %24, metadata !1501, metadata !1428), !dbg !2738
  %25 = alloca i8*, align 8
  call void @llvm.dbg.declare(metadata i8** %25, metadata !1503, metadata !1428), !dbg !2739
  %26 = alloca i8*, align 8
  call void @llvm.dbg.declare(metadata i8** %26, metadata !1528, metadata !1428), !dbg !2743
  %27 = alloca %"class.std::__1::__libcpp_compressed_pair_imp"*, align 8
  call void @llvm.dbg.declare(metadata %"class.std::__1::__libcpp_compressed_pair_imp"** %27, metadata !1425, metadata !1428), !dbg !2744
  %28 = alloca %"class.std::__1::__compressed_pair"*, align 8
  call void @llvm.dbg.declare(metadata %"class.std::__1::__compressed_pair"** %28, metadata !1440, metadata !1428), !dbg !2747
  %29 = alloca %"class.std::__1::basic_string"*, align 8
  call void @llvm.dbg.declare(metadata %"class.std::__1::basic_string"** %29, metadata !1534, metadata !1428), !dbg !2748
  %30 = alloca %"class.std::__1::__libcpp_compressed_pair_imp"*, align 8
  call void @llvm.dbg.declare(metadata %"class.std::__1::__libcpp_compressed_pair_imp"** %30, metadata !1425, metadata !1428), !dbg !2749
  %31 = alloca %"class.std::__1::__compressed_pair"*, align 8
  call void @llvm.dbg.declare(metadata %"class.std::__1::__compressed_pair"** %31, metadata !1440, metadata !1428), !dbg !2753
  %32 = alloca %"class.std::__1::basic_string"*, align 8
  call void @llvm.dbg.declare(metadata %"class.std::__1::basic_string"** %32, metadata !1460, metadata !1428), !dbg !2754
  %33 = alloca %"class.std::__1::basic_string"*, align 8
  call void @llvm.dbg.declare(metadata %"class.std::__1::basic_string"** %33, metadata !1542, metadata !1428), !dbg !2755
  %34 = alloca %"class.std::__1::basic_string"*, align 8
  call void @llvm.dbg.declare(metadata %"class.std::__1::basic_string"** %34, metadata !1544, metadata !1428), !dbg !2756
  %35 = alloca %"class.std::__1::basic_string"*, align 8
  call void @llvm.dbg.declare(metadata %"class.std::__1::basic_string"** %35, metadata !1546, metadata !1428), !dbg !2757
  %36 = alloca i8*, align 8
  call void @llvm.dbg.declare(metadata i8** %36, metadata !1548, metadata !1428), !dbg !2758
  %37 = alloca i64, align 8
  call void @llvm.dbg.declare(metadata i64* %37, metadata !1550, metadata !1428), !dbg !2759
  %38 = alloca i8*
  %39 = alloca i32
  %40 = alloca %"class.std::__1::__libcpp_compressed_pair_imp"*, align 8
  call void @llvm.dbg.declare(metadata %"class.std::__1::__libcpp_compressed_pair_imp"** %40, metadata !1425, metadata !1428), !dbg !2760
  %41 = alloca %"class.std::__1::__compressed_pair"*, align 8
  call void @llvm.dbg.declare(metadata %"class.std::__1::__compressed_pair"** %41, metadata !1440, metadata !1428), !dbg !2766
  %42 = alloca %"class.std::__1::basic_string"*, align 8
  call void @llvm.dbg.declare(metadata %"class.std::__1::basic_string"** %42, metadata !1443, metadata !1428), !dbg !2767
  %43 = alloca %"class.std::__1::__libcpp_compressed_pair_imp"*, align 8
  call void @llvm.dbg.declare(metadata %"class.std::__1::__libcpp_compressed_pair_imp"** %43, metadata !1425, metadata !1428), !dbg !2768
  %44 = alloca %"class.std::__1::__compressed_pair"*, align 8
  call void @llvm.dbg.declare(metadata %"class.std::__1::__compressed_pair"** %44, metadata !1440, metadata !1428), !dbg !2772
  %45 = alloca %"class.std::__1::basic_string"*, align 8
  call void @llvm.dbg.declare(metadata %"class.std::__1::basic_string"** %45, metadata !1452, metadata !1428), !dbg !2773
  %46 = alloca %"class.std::__1::__libcpp_compressed_pair_imp"*, align 8
  call void @llvm.dbg.declare(metadata %"class.std::__1::__libcpp_compressed_pair_imp"** %46, metadata !1425, metadata !1428), !dbg !2774
  %47 = alloca %"class.std::__1::__compressed_pair"*, align 8
  call void @llvm.dbg.declare(metadata %"class.std::__1::__compressed_pair"** %47, metadata !1440, metadata !1428), !dbg !2778
  %48 = alloca %"class.std::__1::basic_string"*, align 8
  call void @llvm.dbg.declare(metadata %"class.std::__1::basic_string"** %48, metadata !1460, metadata !1428), !dbg !2779
  %49 = alloca %"class.std::__1::basic_string"*, align 8
  call void @llvm.dbg.declare(metadata %"class.std::__1::basic_string"** %49, metadata !1462, metadata !1428), !dbg !2780
  %50 = alloca i64, align 8
  %51 = alloca i8*, align 8
  call void @llvm.dbg.declare(metadata i8** %51, metadata !1464, metadata !1428), !dbg !2781
  %52 = alloca i64, align 8
  call void @llvm.dbg.declare(metadata i64* %52, metadata !1473, metadata !1428), !dbg !2783
  %53 = alloca i8*, align 8
  call void @llvm.dbg.declare(metadata i8** %53, metadata !1475, metadata !1428), !dbg !2784
  %54 = alloca i64, align 8
  call void @llvm.dbg.declare(metadata i64* %54, metadata !1477, metadata !1428), !dbg !2785
  %55 = alloca i64, align 8
  call void @llvm.dbg.declare(metadata i64* %55, metadata !1479, metadata !1428), !dbg !2786
  %56 = alloca i8*, align 8
  call void @llvm.dbg.declare(metadata i8** %56, metadata !1481, metadata !1428), !dbg !2787
  %57 = alloca i8*
  %58 = alloca i32
  %59 = alloca %"struct.std::__1::pair", align 8
  %60 = alloca i8*, align 8
  call void @llvm.dbg.declare(metadata i8** %60, metadata !1483, metadata !1428), !dbg !2788
  %61 = alloca %"class.std::__1::__libcpp_compressed_pair_imp"*, align 8
  call void @llvm.dbg.declare(metadata %"class.std::__1::__libcpp_compressed_pair_imp"** %61, metadata !1425, metadata !1428), !dbg !2791
  %62 = alloca %"class.std::__1::__compressed_pair"*, align 8
  call void @llvm.dbg.declare(metadata %"class.std::__1::__compressed_pair"** %62, metadata !1440, metadata !1428), !dbg !2796
  %63 = alloca %"class.std::__1::basic_string"*, align 8
  call void @llvm.dbg.declare(metadata %"class.std::__1::basic_string"** %63, metadata !1501, metadata !1428), !dbg !2797
  %64 = alloca i8*, align 8
  call void @llvm.dbg.declare(metadata i8** %64, metadata !1503, metadata !1428), !dbg !2798
  %65 = alloca i8*, align 8
  call void @llvm.dbg.declare(metadata i8** %65, metadata !1528, metadata !1428), !dbg !2802
  %66 = alloca %"class.std::__1::__libcpp_compressed_pair_imp"*, align 8
  call void @llvm.dbg.declare(metadata %"class.std::__1::__libcpp_compressed_pair_imp"** %66, metadata !1425, metadata !1428), !dbg !2803
  %67 = alloca %"class.std::__1::__compressed_pair"*, align 8
  call void @llvm.dbg.declare(metadata %"class.std::__1::__compressed_pair"** %67, metadata !1440, metadata !1428), !dbg !2806
  %68 = alloca %"class.std::__1::basic_string"*, align 8
  call void @llvm.dbg.declare(metadata %"class.std::__1::basic_string"** %68, metadata !1534, metadata !1428), !dbg !2807
  %69 = alloca %"class.std::__1::__libcpp_compressed_pair_imp"*, align 8
  call void @llvm.dbg.declare(metadata %"class.std::__1::__libcpp_compressed_pair_imp"** %69, metadata !1425, metadata !1428), !dbg !2808
  %70 = alloca %"class.std::__1::__compressed_pair"*, align 8
  call void @llvm.dbg.declare(metadata %"class.std::__1::__compressed_pair"** %70, metadata !1440, metadata !1428), !dbg !2812
  %71 = alloca %"class.std::__1::basic_string"*, align 8
  call void @llvm.dbg.declare(metadata %"class.std::__1::basic_string"** %71, metadata !1460, metadata !1428), !dbg !2813
  %72 = alloca %"class.std::__1::basic_string"*, align 8
  call void @llvm.dbg.declare(metadata %"class.std::__1::basic_string"** %72, metadata !1542, metadata !1428), !dbg !2814
  %73 = alloca %"class.std::__1::basic_string"*, align 8
  call void @llvm.dbg.declare(metadata %"class.std::__1::basic_string"** %73, metadata !1544, metadata !1428), !dbg !2815
  %74 = alloca %"class.std::__1::basic_string"*, align 8
  call void @llvm.dbg.declare(metadata %"class.std::__1::basic_string"** %74, metadata !1546, metadata !1428), !dbg !2816
  %75 = alloca i8*, align 8
  call void @llvm.dbg.declare(metadata i8** %75, metadata !1548, metadata !1428), !dbg !2817
  %76 = alloca i64, align 8
  call void @llvm.dbg.declare(metadata i64* %76, metadata !1550, metadata !1428), !dbg !2818
  %77 = alloca i8*
  %78 = alloca i32
  %79 = alloca %"class.std::__1::allocator"*, align 8
  call void @llvm.dbg.declare(metadata %"class.std::__1::allocator"** %79, metadata !1611, metadata !1428), !dbg !2819
  %80 = alloca %"class.std::__1::__libcpp_compressed_pair_imp"*, align 8
  call void @llvm.dbg.declare(metadata %"class.std::__1::__libcpp_compressed_pair_imp"** %80, metadata !1626, metadata !1428), !dbg !2826
  %81 = alloca %"class.std::__1::__compressed_pair"*, align 8
  call void @llvm.dbg.declare(metadata %"class.std::__1::__compressed_pair"** %81, metadata !1629, metadata !1428), !dbg !2827
  %82 = alloca %"class.std::__1::__compressed_pair"*, align 8
  call void @llvm.dbg.declare(metadata %"class.std::__1::__compressed_pair"** %82, metadata !1632, metadata !1428), !dbg !2828
  %83 = alloca %"class.std::__1::basic_string"*, align 8
  call void @llvm.dbg.declare(metadata %"class.std::__1::basic_string"** %83, metadata !1634, metadata !1428), !dbg !2829
  %84 = alloca i8*, align 8
  call void @llvm.dbg.declare(metadata i8** %84, metadata !1637, metadata !1428), !dbg !2830
  %85 = alloca %"class.std::__1::basic_string"*, align 8
  call void @llvm.dbg.declare(metadata %"class.std::__1::basic_string"** %85, metadata !1639, metadata !1428), !dbg !2831
  %86 = alloca i8*, align 8
  call void @llvm.dbg.declare(metadata i8** %86, metadata !1641, metadata !1428), !dbg !2832
  %87 = alloca %"class.std::__1::allocator"*, align 8
  call void @llvm.dbg.declare(metadata %"class.std::__1::allocator"** %87, metadata !1611, metadata !1428), !dbg !2833
  %88 = alloca %"class.std::__1::__libcpp_compressed_pair_imp"*, align 8
  call void @llvm.dbg.declare(metadata %"class.std::__1::__libcpp_compressed_pair_imp"** %88, metadata !1626, metadata !1428), !dbg !2840
  %89 = alloca %"class.std::__1::__compressed_pair"*, align 8
  call void @llvm.dbg.declare(metadata %"class.std::__1::__compressed_pair"** %89, metadata !1629, metadata !1428), !dbg !2841
  %90 = alloca %"class.std::__1::__compressed_pair"*, align 8
  call void @llvm.dbg.declare(metadata %"class.std::__1::__compressed_pair"** %90, metadata !1632, metadata !1428), !dbg !2842
  %91 = alloca %"class.std::__1::basic_string"*, align 8
  call void @llvm.dbg.declare(metadata %"class.std::__1::basic_string"** %91, metadata !1634, metadata !1428), !dbg !2843
  %92 = alloca i8*, align 8
  call void @llvm.dbg.declare(metadata i8** %92, metadata !1637, metadata !1428), !dbg !2844
  %93 = alloca %"class.std::__1::basic_string"*, align 8
  call void @llvm.dbg.declare(metadata %"class.std::__1::basic_string"** %93, metadata !1639, metadata !1428), !dbg !2845
  %94 = alloca i8*, align 8
  call void @llvm.dbg.declare(metadata i8** %94, metadata !1641, metadata !1428), !dbg !2846
  %95 = alloca i1, align 1
  %96 = alloca %"class.std::__1::basic_string", align 8
  %97 = alloca %"class.std::__1::basic_string", align 8
  %98 = alloca i8*
  %99 = alloca i32
  %100 = alloca i32
  call void @llvm.dbg.declare(metadata %"class.std::__1::basic_string"* %96, metadata !2847, metadata !1428), !dbg !2848
  store %"class.std::__1::basic_string"* %96, %"class.std::__1::basic_string"** %93, align 8, !dbg !2849
  store i8* getelementptr inbounds ([5 x i8], [5 x i8]* @.str, i32 0, i32 0), i8** %94, align 8, !dbg !2849
  %101 = load %"class.std::__1::basic_string"*, %"class.std::__1::basic_string"** %93, align 8, !dbg !2849
  %102 = load i8*, i8** %94, align 8, !dbg !2850
  store %"class.std::__1::basic_string"* %101, %"class.std::__1::basic_string"** %91, align 8, !dbg !2850
  store i8* %102, i8** %92, align 8, !dbg !2850
  %103 = load %"class.std::__1::basic_string"*, %"class.std::__1::basic_string"** %91, align 8, !dbg !2850
  %104 = bitcast %"class.std::__1::basic_string"* %103 to %"class.std::__1::__basic_string_common"*, !dbg !2851
  %105 = getelementptr inbounds %"class.std::__1::basic_string", %"class.std::__1::basic_string"* %103, i32 0, i32 0, !dbg !2852
  store %"class.std::__1::__compressed_pair"* %105, %"class.std::__1::__compressed_pair"** %90, align 8, !dbg !2852
  %106 = load %"class.std::__1::__compressed_pair"*, %"class.std::__1::__compressed_pair"** %90, align 8, !dbg !2852
  store %"class.std::__1::__compressed_pair"* %106, %"class.std::__1::__compressed_pair"** %89, align 8, !dbg !2853
  %107 = load %"class.std::__1::__compressed_pair"*, %"class.std::__1::__compressed_pair"** %89, align 8, !dbg !2853
  %108 = bitcast %"class.std::__1::__compressed_pair"* %107 to %"class.std::__1::__libcpp_compressed_pair_imp"*, !dbg !2854
  store %"class.std::__1::__libcpp_compressed_pair_imp"* %108, %"class.std::__1::__libcpp_compressed_pair_imp"** %88, align 8, !dbg !2855
  %109 = load %"class.std::__1::__libcpp_compressed_pair_imp"*, %"class.std::__1::__libcpp_compressed_pair_imp"** %88, align 8, !dbg !2855
  %110 = bitcast %"class.std::__1::__libcpp_compressed_pair_imp"* %109 to %"class.std::__1::allocator"*, !dbg !2856
  store %"class.std::__1::allocator"* %110, %"class.std::__1::allocator"** %87, align 8, !dbg !2857
  %111 = load %"class.std::__1::allocator"*, %"class.std::__1::allocator"** %87, align 8, !dbg !2857
  %112 = getelementptr inbounds %"class.std::__1::__libcpp_compressed_pair_imp", %"class.std::__1::__libcpp_compressed_pair_imp"* %109, i32 0, i32 0, !dbg !2858
  %113 = bitcast %"struct.std::__1::basic_string<char, std::__1::char_traits<char>, std::__1::allocator<char> >::__rep"* %112 to i8*, !dbg !2858
  call void @llvm.memset.p0i8.i64(i8* %113, i8 0, i64 24, i32 8, i1 false) #8, !dbg !2858
  %114 = load i8*, i8** %92, align 8, !dbg !2859
  %115 = load i8*, i8** %92, align 8, !dbg !2860
  %116 = call i64 @_ZNSt3__111char_traitsIcE6lengthEPKc(i8* %115), !dbg !2861
  call void @_ZNSt3__112basic_stringIcNS_11char_traitsIcEENS_9allocatorIcEEE6__initEPKcm(%"class.std::__1::basic_string"* %103, i8* %114, i64 %116), !dbg !2862
  call void @llvm.dbg.declare(metadata %"class.std::__1::basic_string"* %97, metadata !2863, metadata !1428), !dbg !2864
  store %"class.std::__1::basic_string"* %97, %"class.std::__1::basic_string"** %85, align 8, !dbg !2865
  store i8* getelementptr inbounds ([5 x i8], [5 x i8]* @.str.1, i32 0, i32 0), i8** %86, align 8, !dbg !2865
  %117 = load %"class.std::__1::basic_string"*, %"class.std::__1::basic_string"** %85, align 8, !dbg !2865
  %118 = load i8*, i8** %86, align 8, !dbg !2866
  store %"class.std::__1::basic_string"* %117, %"class.std::__1::basic_string"** %83, align 8, !dbg !2866
  store i8* %118, i8** %84, align 8, !dbg !2866
  %119 = load %"class.std::__1::basic_string"*, %"class.std::__1::basic_string"** %83, align 8, !dbg !2866
  %120 = bitcast %"class.std::__1::basic_string"* %119 to %"class.std::__1::__basic_string_common"*, !dbg !2867
  %121 = getelementptr inbounds %"class.std::__1::basic_string", %"class.std::__1::basic_string"* %119, i32 0, i32 0, !dbg !2868
  store %"class.std::__1::__compressed_pair"* %121, %"class.std::__1::__compressed_pair"** %82, align 8, !dbg !2868
  %122 = load %"class.std::__1::__compressed_pair"*, %"class.std::__1::__compressed_pair"** %82, align 8, !dbg !2868
  store %"class.std::__1::__compressed_pair"* %122, %"class.std::__1::__compressed_pair"** %81, align 8, !dbg !2869
  %123 = load %"class.std::__1::__compressed_pair"*, %"class.std::__1::__compressed_pair"** %81, align 8, !dbg !2869
  %124 = bitcast %"class.std::__1::__compressed_pair"* %123 to %"class.std::__1::__libcpp_compressed_pair_imp"*, !dbg !2870
  store %"class.std::__1::__libcpp_compressed_pair_imp"* %124, %"class.std::__1::__libcpp_compressed_pair_imp"** %80, align 8, !dbg !2871
  %125 = load %"class.std::__1::__libcpp_compressed_pair_imp"*, %"class.std::__1::__libcpp_compressed_pair_imp"** %80, align 8, !dbg !2871
  %126 = bitcast %"class.std::__1::__libcpp_compressed_pair_imp"* %125 to %"class.std::__1::allocator"*, !dbg !2872
  store %"class.std::__1::allocator"* %126, %"class.std::__1::allocator"** %79, align 8, !dbg !2873
  %127 = load %"class.std::__1::allocator"*, %"class.std::__1::allocator"** %79, align 8, !dbg !2873
  %128 = getelementptr inbounds %"class.std::__1::__libcpp_compressed_pair_imp", %"class.std::__1::__libcpp_compressed_pair_imp"* %125, i32 0, i32 0, !dbg !2874
  %129 = bitcast %"struct.std::__1::basic_string<char, std::__1::char_traits<char>, std::__1::allocator<char> >::__rep"* %128 to i8*, !dbg !2874
  call void @llvm.memset.p0i8.i64(i8* %129, i8 0, i64 24, i32 8, i1 false) #8, !dbg !2874
  %130 = load i8*, i8** %84, align 8, !dbg !2875
  %131 = load i8*, i8** %84, align 8, !dbg !2876
  %132 = invoke i64 @_ZNSt3__111char_traitsIcE6lengthEPKc(i8* %131)
          to label %133 unwind label %444, !dbg !2877

; <label>:133:                                    ; preds = %0
  invoke void @_ZNSt3__112basic_stringIcNS_11char_traitsIcEENS_9allocatorIcEEE6__initEPKcm(%"class.std::__1::basic_string"* %119, i8* %130, i64 %132)
          to label %134 unwind label %444, !dbg !2878

; <label>:134:                                    ; preds = %133
  br label %135, !dbg !2879

; <label>:135:                                    ; preds = %134
  store %"class.std::__1::basic_string"* %96, %"class.std::__1::basic_string"** %74, align 8, !dbg !2880
  store i8* getelementptr inbounds ([5 x i8], [5 x i8]* @.str, i32 0, i32 0), i8** %75, align 8, !dbg !2880
  store i64 0, i64* %76, align 8, !dbg !2880
  %136 = load %"class.std::__1::basic_string"*, %"class.std::__1::basic_string"** %74, align 8, !dbg !2880
  store %"class.std::__1::basic_string"* %136, %"class.std::__1::basic_string"** %73, align 8, !dbg !2881
  %137 = load %"class.std::__1::basic_string"*, %"class.std::__1::basic_string"** %73, align 8, !dbg !2881
  store %"class.std::__1::basic_string"* %137, %"class.std::__1::basic_string"** %72, align 8, !dbg !2882
  %138 = load %"class.std::__1::basic_string"*, %"class.std::__1::basic_string"** %72, align 8, !dbg !2882
  store %"class.std::__1::basic_string"* %138, %"class.std::__1::basic_string"** %71, align 8, !dbg !2883
  %139 = load %"class.std::__1::basic_string"*, %"class.std::__1::basic_string"** %71, align 8, !dbg !2883
  %140 = getelementptr inbounds %"class.std::__1::basic_string", %"class.std::__1::basic_string"* %139, i32 0, i32 0, !dbg !2884
  store %"class.std::__1::__compressed_pair"* %140, %"class.std::__1::__compressed_pair"** %70, align 8, !dbg !2885
  %141 = load %"class.std::__1::__compressed_pair"*, %"class.std::__1::__compressed_pair"** %70, align 8, !dbg !2885
  %142 = bitcast %"class.std::__1::__compressed_pair"* %141 to %"class.std::__1::__libcpp_compressed_pair_imp"*, !dbg !2886
  store %"class.std::__1::__libcpp_compressed_pair_imp"* %142, %"class.std::__1::__libcpp_compressed_pair_imp"** %69, align 8, !dbg !2886
  %143 = load %"class.std::__1::__libcpp_compressed_pair_imp"*, %"class.std::__1::__libcpp_compressed_pair_imp"** %69, align 8, !dbg !2886
  %144 = getelementptr inbounds %"class.std::__1::__libcpp_compressed_pair_imp", %"class.std::__1::__libcpp_compressed_pair_imp"* %143, i32 0, i32 0, !dbg !2887
  %145 = getelementptr inbounds %"struct.std::__1::basic_string<char, std::__1::char_traits<char>, std::__1::allocator<char> >::__rep", %"struct.std::__1::basic_string<char, std::__1::char_traits<char>, std::__1::allocator<char> >::__rep"* %144, i32 0, i32 0, !dbg !2888
  %146 = bitcast %union.anon* %145 to %"struct.std::__1::basic_string<char, std::__1::char_traits<char>, std::__1::allocator<char> >::__short"*, !dbg !2888
  %147 = getelementptr inbounds %"struct.std::__1::basic_string<char, std::__1::char_traits<char>, std::__1::allocator<char> >::__short", %"struct.std::__1::basic_string<char, std::__1::char_traits<char>, std::__1::allocator<char> >::__short"* %146, i32 0, i32 0, !dbg !2889
  %148 = bitcast %union.anon.0* %147 to i8*, !dbg !2889
  %149 = load i8, i8* %148, align 8, !dbg !2889
  %150 = zext i8 %149 to i32, !dbg !2884
  %151 = and i32 %150, 1, !dbg !2890
  %152 = icmp ne i32 %151, 0, !dbg !2884
  br i1 %152, label %153, label %164, !dbg !2883

; <label>:153:                                    ; preds = %135
  store %"class.std::__1::basic_string"* %138, %"class.std::__1::basic_string"** %63, align 8, !dbg !2891
  %154 = load %"class.std::__1::basic_string"*, %"class.std::__1::basic_string"** %63, align 8, !dbg !2891
  %155 = getelementptr inbounds %"class.std::__1::basic_string", %"class.std::__1::basic_string"* %154, i32 0, i32 0, !dbg !2892
  store %"class.std::__1::__compressed_pair"* %155, %"class.std::__1::__compressed_pair"** %62, align 8, !dbg !2893
  %156 = load %"class.std::__1::__compressed_pair"*, %"class.std::__1::__compressed_pair"** %62, align 8, !dbg !2893
  %157 = bitcast %"class.std::__1::__compressed_pair"* %156 to %"class.std::__1::__libcpp_compressed_pair_imp"*, !dbg !2894
  store %"class.std::__1::__libcpp_compressed_pair_imp"* %157, %"class.std::__1::__libcpp_compressed_pair_imp"** %61, align 8, !dbg !2894
  %158 = load %"class.std::__1::__libcpp_compressed_pair_imp"*, %"class.std::__1::__libcpp_compressed_pair_imp"** %61, align 8, !dbg !2894
  %159 = getelementptr inbounds %"class.std::__1::__libcpp_compressed_pair_imp", %"class.std::__1::__libcpp_compressed_pair_imp"* %158, i32 0, i32 0, !dbg !2895
  %160 = getelementptr inbounds %"struct.std::__1::basic_string<char, std::__1::char_traits<char>, std::__1::allocator<char> >::__rep", %"struct.std::__1::basic_string<char, std::__1::char_traits<char>, std::__1::allocator<char> >::__rep"* %159, i32 0, i32 0, !dbg !2896
  %161 = bitcast %union.anon* %160 to %"struct.std::__1::basic_string<char, std::__1::char_traits<char>, std::__1::allocator<char> >::__long"*, !dbg !2896
  %162 = getelementptr inbounds %"struct.std::__1::basic_string<char, std::__1::char_traits<char>, std::__1::allocator<char> >::__long", %"struct.std::__1::basic_string<char, std::__1::char_traits<char>, std::__1::allocator<char> >::__long"* %161, i32 0, i32 2, !dbg !2897
  %163 = load i8*, i8** %162, align 8, !dbg !2897
  br label %177, !dbg !2883

; <label>:164:                                    ; preds = %135
  store %"class.std::__1::basic_string"* %138, %"class.std::__1::basic_string"** %68, align 8, !dbg !2898
  %165 = load %"class.std::__1::basic_string"*, %"class.std::__1::basic_string"** %68, align 8, !dbg !2898
  %166 = getelementptr inbounds %"class.std::__1::basic_string", %"class.std::__1::basic_string"* %165, i32 0, i32 0, !dbg !2899
  store %"class.std::__1::__compressed_pair"* %166, %"class.std::__1::__compressed_pair"** %67, align 8, !dbg !2900
  %167 = load %"class.std::__1::__compressed_pair"*, %"class.std::__1::__compressed_pair"** %67, align 8, !dbg !2900
  %168 = bitcast %"class.std::__1::__compressed_pair"* %167 to %"class.std::__1::__libcpp_compressed_pair_imp"*, !dbg !2901
  store %"class.std::__1::__libcpp_compressed_pair_imp"* %168, %"class.std::__1::__libcpp_compressed_pair_imp"** %66, align 8, !dbg !2901
  %169 = load %"class.std::__1::__libcpp_compressed_pair_imp"*, %"class.std::__1::__libcpp_compressed_pair_imp"** %66, align 8, !dbg !2901
  %170 = getelementptr inbounds %"class.std::__1::__libcpp_compressed_pair_imp", %"class.std::__1::__libcpp_compressed_pair_imp"* %169, i32 0, i32 0, !dbg !2902
  %171 = getelementptr inbounds %"struct.std::__1::basic_string<char, std::__1::char_traits<char>, std::__1::allocator<char> >::__rep", %"struct.std::__1::basic_string<char, std::__1::char_traits<char>, std::__1::allocator<char> >::__rep"* %170, i32 0, i32 0, !dbg !2903
  %172 = bitcast %union.anon* %171 to %"struct.std::__1::basic_string<char, std::__1::char_traits<char>, std::__1::allocator<char> >::__short"*, !dbg !2903
  %173 = getelementptr inbounds %"struct.std::__1::basic_string<char, std::__1::char_traits<char>, std::__1::allocator<char> >::__short", %"struct.std::__1::basic_string<char, std::__1::char_traits<char>, std::__1::allocator<char> >::__short"* %172, i32 0, i32 1, !dbg !2904
  %174 = getelementptr inbounds [23 x i8], [23 x i8]* %173, i64 0, i64 0, !dbg !2899
  store i8* %174, i8** %65, align 8, !dbg !2905
  %175 = load i8*, i8** %65, align 8, !dbg !2906
  store i8* %175, i8** %64, align 8, !dbg !2907
  %176 = load i8*, i8** %64, align 8, !dbg !2908
  br label %177, !dbg !2883

; <label>:177:                                    ; preds = %164, %153
  %178 = phi i8* [ %163, %153 ], [ %176, %164 ], !dbg !2883
  store i8* %178, i8** %60, align 8, !dbg !2909
  %179 = load i8*, i8** %60, align 8, !dbg !2910
  store %"class.std::__1::basic_string"* %136, %"class.std::__1::basic_string"** %49, align 8, !dbg !2911
  %180 = load %"class.std::__1::basic_string"*, %"class.std::__1::basic_string"** %49, align 8, !dbg !2911
  store %"class.std::__1::basic_string"* %180, %"class.std::__1::basic_string"** %48, align 8, !dbg !2912
  %181 = load %"class.std::__1::basic_string"*, %"class.std::__1::basic_string"** %48, align 8, !dbg !2912
  %182 = getelementptr inbounds %"class.std::__1::basic_string", %"class.std::__1::basic_string"* %181, i32 0, i32 0, !dbg !2913
  store %"class.std::__1::__compressed_pair"* %182, %"class.std::__1::__compressed_pair"** %47, align 8, !dbg !2914
  %183 = load %"class.std::__1::__compressed_pair"*, %"class.std::__1::__compressed_pair"** %47, align 8, !dbg !2914
  %184 = bitcast %"class.std::__1::__compressed_pair"* %183 to %"class.std::__1::__libcpp_compressed_pair_imp"*, !dbg !2915
  store %"class.std::__1::__libcpp_compressed_pair_imp"* %184, %"class.std::__1::__libcpp_compressed_pair_imp"** %46, align 8, !dbg !2915
  %185 = load %"class.std::__1::__libcpp_compressed_pair_imp"*, %"class.std::__1::__libcpp_compressed_pair_imp"** %46, align 8, !dbg !2915
  %186 = getelementptr inbounds %"class.std::__1::__libcpp_compressed_pair_imp", %"class.std::__1::__libcpp_compressed_pair_imp"* %185, i32 0, i32 0, !dbg !2916
  %187 = getelementptr inbounds %"struct.std::__1::basic_string<char, std::__1::char_traits<char>, std::__1::allocator<char> >::__rep", %"struct.std::__1::basic_string<char, std::__1::char_traits<char>, std::__1::allocator<char> >::__rep"* %186, i32 0, i32 0, !dbg !2917
  %188 = bitcast %union.anon* %187 to %"struct.std::__1::basic_string<char, std::__1::char_traits<char>, std::__1::allocator<char> >::__short"*, !dbg !2917
  %189 = getelementptr inbounds %"struct.std::__1::basic_string<char, std::__1::char_traits<char>, std::__1::allocator<char> >::__short", %"struct.std::__1::basic_string<char, std::__1::char_traits<char>, std::__1::allocator<char> >::__short"* %188, i32 0, i32 0, !dbg !2918
  %190 = bitcast %union.anon.0* %189 to i8*, !dbg !2918
  %191 = load i8, i8* %190, align 8, !dbg !2918
  %192 = zext i8 %191 to i32, !dbg !2913
  %193 = and i32 %192, 1, !dbg !2919
  %194 = icmp ne i32 %193, 0, !dbg !2913
  br i1 %194, label %195, label %206, !dbg !2912

; <label>:195:                                    ; preds = %177
  store %"class.std::__1::basic_string"* %180, %"class.std::__1::basic_string"** %42, align 8, !dbg !2920
  %196 = load %"class.std::__1::basic_string"*, %"class.std::__1::basic_string"** %42, align 8, !dbg !2920
  %197 = getelementptr inbounds %"class.std::__1::basic_string", %"class.std::__1::basic_string"* %196, i32 0, i32 0, !dbg !2921
  store %"class.std::__1::__compressed_pair"* %197, %"class.std::__1::__compressed_pair"** %41, align 8, !dbg !2922
  %198 = load %"class.std::__1::__compressed_pair"*, %"class.std::__1::__compressed_pair"** %41, align 8, !dbg !2922
  %199 = bitcast %"class.std::__1::__compressed_pair"* %198 to %"class.std::__1::__libcpp_compressed_pair_imp"*, !dbg !2923
  store %"class.std::__1::__libcpp_compressed_pair_imp"* %199, %"class.std::__1::__libcpp_compressed_pair_imp"** %40, align 8, !dbg !2923
  %200 = load %"class.std::__1::__libcpp_compressed_pair_imp"*, %"class.std::__1::__libcpp_compressed_pair_imp"** %40, align 8, !dbg !2923
  %201 = getelementptr inbounds %"class.std::__1::__libcpp_compressed_pair_imp", %"class.std::__1::__libcpp_compressed_pair_imp"* %200, i32 0, i32 0, !dbg !2924
  %202 = getelementptr inbounds %"struct.std::__1::basic_string<char, std::__1::char_traits<char>, std::__1::allocator<char> >::__rep", %"struct.std::__1::basic_string<char, std::__1::char_traits<char>, std::__1::allocator<char> >::__rep"* %201, i32 0, i32 0, !dbg !2925
  %203 = bitcast %union.anon* %202 to %"struct.std::__1::basic_string<char, std::__1::char_traits<char>, std::__1::allocator<char> >::__long"*, !dbg !2925
  %204 = getelementptr inbounds %"struct.std::__1::basic_string<char, std::__1::char_traits<char>, std::__1::allocator<char> >::__long", %"struct.std::__1::basic_string<char, std::__1::char_traits<char>, std::__1::allocator<char> >::__long"* %203, i32 0, i32 1, !dbg !2926
  %205 = load i64, i64* %204, align 8, !dbg !2926
  br label %221, !dbg !2912

; <label>:206:                                    ; preds = %177
  store %"class.std::__1::basic_string"* %180, %"class.std::__1::basic_string"** %45, align 8, !dbg !2927
  %207 = load %"class.std::__1::basic_string"*, %"class.std::__1::basic_string"** %45, align 8, !dbg !2927
  %208 = getelementptr inbounds %"class.std::__1::basic_string", %"class.std::__1::basic_string"* %207, i32 0, i32 0, !dbg !2928
  store %"class.std::__1::__compressed_pair"* %208, %"class.std::__1::__compressed_pair"** %44, align 8, !dbg !2929
  %209 = load %"class.std::__1::__compressed_pair"*, %"class.std::__1::__compressed_pair"** %44, align 8, !dbg !2929
  %210 = bitcast %"class.std::__1::__compressed_pair"* %209 to %"class.std::__1::__libcpp_compressed_pair_imp"*, !dbg !2930
  store %"class.std::__1::__libcpp_compressed_pair_imp"* %210, %"class.std::__1::__libcpp_compressed_pair_imp"** %43, align 8, !dbg !2930
  %211 = load %"class.std::__1::__libcpp_compressed_pair_imp"*, %"class.std::__1::__libcpp_compressed_pair_imp"** %43, align 8, !dbg !2930
  %212 = getelementptr inbounds %"class.std::__1::__libcpp_compressed_pair_imp", %"class.std::__1::__libcpp_compressed_pair_imp"* %211, i32 0, i32 0, !dbg !2931
  %213 = getelementptr inbounds %"struct.std::__1::basic_string<char, std::__1::char_traits<char>, std::__1::allocator<char> >::__rep", %"struct.std::__1::basic_string<char, std::__1::char_traits<char>, std::__1::allocator<char> >::__rep"* %212, i32 0, i32 0, !dbg !2932
  %214 = bitcast %union.anon* %213 to %"struct.std::__1::basic_string<char, std::__1::char_traits<char>, std::__1::allocator<char> >::__short"*, !dbg !2932
  %215 = getelementptr inbounds %"struct.std::__1::basic_string<char, std::__1::char_traits<char>, std::__1::allocator<char> >::__short", %"struct.std::__1::basic_string<char, std::__1::char_traits<char>, std::__1::allocator<char> >::__short"* %214, i32 0, i32 0, !dbg !2933
  %216 = bitcast %union.anon.0* %215 to i8*, !dbg !2933
  %217 = load i8, i8* %216, align 8, !dbg !2933
  %218 = zext i8 %217 to i32, !dbg !2928
  %219 = ashr i32 %218, 1, !dbg !2934
  %220 = sext i32 %219 to i64, !dbg !2928
  br label %221, !dbg !2912

; <label>:221:                                    ; preds = %206, %195
  %222 = phi i64 [ %205, %195 ], [ %220, %206 ], !dbg !2912
  %223 = load i8*, i8** %75, align 8, !dbg !2935
  %224 = load i64, i64* %76, align 8, !dbg !2936
  %225 = load i8*, i8** %75, align 8, !dbg !2937
  %226 = invoke i64 @_ZNSt3__111char_traitsIcE6lengthEPKc(i8* %225)
          to label %227 unwind label %280, !dbg !2938

; <label>:227:                                    ; preds = %221
  store i8* %179, i8** %51, align 8, !dbg !2939
  store i64 %222, i64* %52, align 8, !dbg !2939
  store i8* %223, i8** %53, align 8, !dbg !2939
  store i64 %224, i64* %54, align 8, !dbg !2939
  store i64 %226, i64* %55, align 8, !dbg !2939
  %228 = load i64, i64* %54, align 8, !dbg !2940
  %229 = load i64, i64* %52, align 8, !dbg !2941
  %230 = icmp ugt i64 %228, %229, !dbg !2942
  br i1 %230, label %237, label %231, !dbg !2943

; <label>:231:                                    ; preds = %227
  %232 = load i64, i64* %52, align 8, !dbg !2944
  %233 = load i64, i64* %54, align 8, !dbg !2945
  %234 = sub i64 %232, %233, !dbg !2946
  %235 = load i64, i64* %55, align 8, !dbg !2947
  %236 = icmp ult i64 %234, %235, !dbg !2948
  br i1 %236, label %237, label %238, !dbg !2949

; <label>:237:                                    ; preds = %231, %227
  store i64 -1, i64* %50, align 8, !dbg !2950
  br label %285, !dbg !2950

; <label>:238:                                    ; preds = %231
  %239 = load i64, i64* %55, align 8, !dbg !2951
  %240 = icmp eq i64 %239, 0, !dbg !2952
  br i1 %240, label %241, label %243, !dbg !2953

; <label>:241:                                    ; preds = %238
  %242 = load i64, i64* %54, align 8, !dbg !2954
  store i64 %242, i64* %50, align 8, !dbg !2955
  br label %285, !dbg !2955

; <label>:243:                                    ; preds = %238
  %244 = load i8*, i8** %51, align 8, !dbg !2956
  %245 = load i64, i64* %54, align 8, !dbg !2957
  %246 = getelementptr inbounds i8, i8* %244, i64 %245, !dbg !2958
  %247 = load i8*, i8** %51, align 8, !dbg !2959
  %248 = load i64, i64* %52, align 8, !dbg !2960
  %249 = getelementptr inbounds i8, i8* %247, i64 %248, !dbg !2961
  %250 = load i8*, i8** %53, align 8, !dbg !2962
  %251 = load i8*, i8** %53, align 8, !dbg !2963
  %252 = load i64, i64* %55, align 8, !dbg !2964
  %253 = getelementptr inbounds i8, i8* %251, i64 %252, !dbg !2965
  %254 = invoke { i8*, i8* } @_ZNSt3__18__searchIPFbccEPKcS4_EENS_4pairIT0_S6_EES6_S6_T1_S8_T_NS_26random_access_iterator_tagESA_(i8* %246, i8* %249, i8* %250, i8* %253, i1 (i8, i8)* @_ZNSt3__111char_traitsIcE2eqEcc)
          to label %255 unwind label %269, !dbg !2966

; <label>:255:                                    ; preds = %243
  %256 = bitcast %"struct.std::__1::pair"* %59 to { i8*, i8* }*, !dbg !2966
  %257 = getelementptr inbounds { i8*, i8* }, { i8*, i8* }* %256, i32 0, i32 0, !dbg !2966
  %258 = extractvalue { i8*, i8* } %254, 0, !dbg !2966
  store i8* %258, i8** %257, align 8, !dbg !2966
  %259 = getelementptr inbounds { i8*, i8* }, { i8*, i8* }* %256, i32 0, i32 1, !dbg !2966
  %260 = extractvalue { i8*, i8* } %254, 1, !dbg !2966
  store i8* %260, i8** %259, align 8, !dbg !2966
  %261 = getelementptr inbounds %"struct.std::__1::pair", %"struct.std::__1::pair"* %59, i32 0, i32 0, !dbg !2967
  %262 = load i8*, i8** %261, align 8, !dbg !2967
  store i8* %262, i8** %56, align 8, !dbg !2787
  %263 = load i8*, i8** %56, align 8, !dbg !2968
  %264 = load i8*, i8** %51, align 8, !dbg !2969
  %265 = load i64, i64* %52, align 8, !dbg !2970
  %266 = getelementptr inbounds i8, i8* %264, i64 %265, !dbg !2971
  %267 = icmp eq i8* %263, %266, !dbg !2972
  br i1 %267, label %268, label %274, !dbg !2973

; <label>:268:                                    ; preds = %255
  store i64 -1, i64* %50, align 8, !dbg !2974
  br label %285, !dbg !2974

; <label>:269:                                    ; preds = %243
  %270 = landingpad { i8*, i32 }
          filter [0 x i8*] zeroinitializer, !dbg !2975
  %271 = extractvalue { i8*, i32 } %270, 0, !dbg !2975
  store i8* %271, i8** %57, align 8, !dbg !2975
  %272 = extractvalue { i8*, i32 } %270, 1, !dbg !2975
  store i32 %272, i32* %58, align 4, !dbg !2975
  %273 = load i8*, i8** %57, align 8, !dbg !2975
  call void @__cxa_call_unexpected(i8* %273) #9, !dbg !2975
  unreachable, !dbg !2975

; <label>:274:                                    ; preds = %255
  %275 = load i8*, i8** %56, align 8, !dbg !2976
  %276 = load i8*, i8** %51, align 8, !dbg !2977
  %277 = ptrtoint i8* %275 to i64, !dbg !2978
  %278 = ptrtoint i8* %276 to i64, !dbg !2978
  %279 = sub i64 %277, %278, !dbg !2978
  store i64 %279, i64* %50, align 8, !dbg !2979
  br label %285, !dbg !2979

; <label>:280:                                    ; preds = %221
  %281 = landingpad { i8*, i32 }
          filter [0 x i8*] zeroinitializer, !dbg !2980
  %282 = extractvalue { i8*, i32 } %281, 0, !dbg !2980
  store i8* %282, i8** %77, align 8, !dbg !2980
  %283 = extractvalue { i8*, i32 } %281, 1, !dbg !2980
  store i32 %283, i32* %78, align 4, !dbg !2980
  %284 = load i8*, i8** %77, align 8, !dbg !2981
  call void @__cxa_call_unexpected(i8* %284) #9, !dbg !2981
  unreachable, !dbg !2981

; <label>:285:                                    ; preds = %237, %241, %268, %274
  %286 = load i64, i64* %50, align 8, !dbg !2975
  %287 = icmp ne i64 %286, -1, !dbg !2982
  br i1 %287, label %288, label %452, !dbg !2983

; <label>:288:                                    ; preds = %285
  store %"class.std::__1::basic_string"* %97, %"class.std::__1::basic_string"** %35, align 8, !dbg !2984
  store i8* getelementptr inbounds ([5 x i8], [5 x i8]* @.str, i32 0, i32 0), i8** %36, align 8, !dbg !2984
  store i64 0, i64* %37, align 8, !dbg !2984
  %289 = load %"class.std::__1::basic_string"*, %"class.std::__1::basic_string"** %35, align 8, !dbg !2984
  store %"class.std::__1::basic_string"* %289, %"class.std::__1::basic_string"** %34, align 8, !dbg !2985
  %290 = load %"class.std::__1::basic_string"*, %"class.std::__1::basic_string"** %34, align 8, !dbg !2985
  store %"class.std::__1::basic_string"* %290, %"class.std::__1::basic_string"** %33, align 8, !dbg !2986
  %291 = load %"class.std::__1::basic_string"*, %"class.std::__1::basic_string"** %33, align 8, !dbg !2986
  store %"class.std::__1::basic_string"* %291, %"class.std::__1::basic_string"** %32, align 8, !dbg !2987
  %292 = load %"class.std::__1::basic_string"*, %"class.std::__1::basic_string"** %32, align 8, !dbg !2987
  %293 = getelementptr inbounds %"class.std::__1::basic_string", %"class.std::__1::basic_string"* %292, i32 0, i32 0, !dbg !2988
  store %"class.std::__1::__compressed_pair"* %293, %"class.std::__1::__compressed_pair"** %31, align 8, !dbg !2989
  %294 = load %"class.std::__1::__compressed_pair"*, %"class.std::__1::__compressed_pair"** %31, align 8, !dbg !2989
  %295 = bitcast %"class.std::__1::__compressed_pair"* %294 to %"class.std::__1::__libcpp_compressed_pair_imp"*, !dbg !2990
  store %"class.std::__1::__libcpp_compressed_pair_imp"* %295, %"class.std::__1::__libcpp_compressed_pair_imp"** %30, align 8, !dbg !2990
  %296 = load %"class.std::__1::__libcpp_compressed_pair_imp"*, %"class.std::__1::__libcpp_compressed_pair_imp"** %30, align 8, !dbg !2990
  %297 = getelementptr inbounds %"class.std::__1::__libcpp_compressed_pair_imp", %"class.std::__1::__libcpp_compressed_pair_imp"* %296, i32 0, i32 0, !dbg !2991
  %298 = getelementptr inbounds %"struct.std::__1::basic_string<char, std::__1::char_traits<char>, std::__1::allocator<char> >::__rep", %"struct.std::__1::basic_string<char, std::__1::char_traits<char>, std::__1::allocator<char> >::__rep"* %297, i32 0, i32 0, !dbg !2992
  %299 = bitcast %union.anon* %298 to %"struct.std::__1::basic_string<char, std::__1::char_traits<char>, std::__1::allocator<char> >::__short"*, !dbg !2992
  %300 = getelementptr inbounds %"struct.std::__1::basic_string<char, std::__1::char_traits<char>, std::__1::allocator<char> >::__short", %"struct.std::__1::basic_string<char, std::__1::char_traits<char>, std::__1::allocator<char> >::__short"* %299, i32 0, i32 0, !dbg !2993
  %301 = bitcast %union.anon.0* %300 to i8*, !dbg !2993
  %302 = load i8, i8* %301, align 8, !dbg !2993
  %303 = zext i8 %302 to i32, !dbg !2988
  %304 = and i32 %303, 1, !dbg !2994
  %305 = icmp ne i32 %304, 0, !dbg !2988
  br i1 %305, label %306, label %317, !dbg !2987

; <label>:306:                                    ; preds = %288
  store %"class.std::__1::basic_string"* %291, %"class.std::__1::basic_string"** %24, align 8, !dbg !2995
  %307 = load %"class.std::__1::basic_string"*, %"class.std::__1::basic_string"** %24, align 8, !dbg !2995
  %308 = getelementptr inbounds %"class.std::__1::basic_string", %"class.std::__1::basic_string"* %307, i32 0, i32 0, !dbg !2996
  store %"class.std::__1::__compressed_pair"* %308, %"class.std::__1::__compressed_pair"** %23, align 8, !dbg !2997
  %309 = load %"class.std::__1::__compressed_pair"*, %"class.std::__1::__compressed_pair"** %23, align 8, !dbg !2997
  %310 = bitcast %"class.std::__1::__compressed_pair"* %309 to %"class.std::__1::__libcpp_compressed_pair_imp"*, !dbg !2998
  store %"class.std::__1::__libcpp_compressed_pair_imp"* %310, %"class.std::__1::__libcpp_compressed_pair_imp"** %22, align 8, !dbg !2998
  %311 = load %"class.std::__1::__libcpp_compressed_pair_imp"*, %"class.std::__1::__libcpp_compressed_pair_imp"** %22, align 8, !dbg !2998
  %312 = getelementptr inbounds %"class.std::__1::__libcpp_compressed_pair_imp", %"class.std::__1::__libcpp_compressed_pair_imp"* %311, i32 0, i32 0, !dbg !2999
  %313 = getelementptr inbounds %"struct.std::__1::basic_string<char, std::__1::char_traits<char>, std::__1::allocator<char> >::__rep", %"struct.std::__1::basic_string<char, std::__1::char_traits<char>, std::__1::allocator<char> >::__rep"* %312, i32 0, i32 0, !dbg !3000
  %314 = bitcast %union.anon* %313 to %"struct.std::__1::basic_string<char, std::__1::char_traits<char>, std::__1::allocator<char> >::__long"*, !dbg !3000
  %315 = getelementptr inbounds %"struct.std::__1::basic_string<char, std::__1::char_traits<char>, std::__1::allocator<char> >::__long", %"struct.std::__1::basic_string<char, std::__1::char_traits<char>, std::__1::allocator<char> >::__long"* %314, i32 0, i32 2, !dbg !3001
  %316 = load i8*, i8** %315, align 8, !dbg !3001
  br label %330, !dbg !2987

; <label>:317:                                    ; preds = %288
  store %"class.std::__1::basic_string"* %291, %"class.std::__1::basic_string"** %29, align 8, !dbg !3002
  %318 = load %"class.std::__1::basic_string"*, %"class.std::__1::basic_string"** %29, align 8, !dbg !3002
  %319 = getelementptr inbounds %"class.std::__1::basic_string", %"class.std::__1::basic_string"* %318, i32 0, i32 0, !dbg !3003
  store %"class.std::__1::__compressed_pair"* %319, %"class.std::__1::__compressed_pair"** %28, align 8, !dbg !3004
  %320 = load %"class.std::__1::__compressed_pair"*, %"class.std::__1::__compressed_pair"** %28, align 8, !dbg !3004
  %321 = bitcast %"class.std::__1::__compressed_pair"* %320 to %"class.std::__1::__libcpp_compressed_pair_imp"*, !dbg !3005
  store %"class.std::__1::__libcpp_compressed_pair_imp"* %321, %"class.std::__1::__libcpp_compressed_pair_imp"** %27, align 8, !dbg !3005
  %322 = load %"class.std::__1::__libcpp_compressed_pair_imp"*, %"class.std::__1::__libcpp_compressed_pair_imp"** %27, align 8, !dbg !3005
  %323 = getelementptr inbounds %"class.std::__1::__libcpp_compressed_pair_imp", %"class.std::__1::__libcpp_compressed_pair_imp"* %322, i32 0, i32 0, !dbg !3006
  %324 = getelementptr inbounds %"struct.std::__1::basic_string<char, std::__1::char_traits<char>, std::__1::allocator<char> >::__rep", %"struct.std::__1::basic_string<char, std::__1::char_traits<char>, std::__1::allocator<char> >::__rep"* %323, i32 0, i32 0, !dbg !3007
  %325 = bitcast %union.anon* %324 to %"struct.std::__1::basic_string<char, std::__1::char_traits<char>, std::__1::allocator<char> >::__short"*, !dbg !3007
  %326 = getelementptr inbounds %"struct.std::__1::basic_string<char, std::__1::char_traits<char>, std::__1::allocator<char> >::__short", %"struct.std::__1::basic_string<char, std::__1::char_traits<char>, std::__1::allocator<char> >::__short"* %325, i32 0, i32 1, !dbg !3008
  %327 = getelementptr inbounds [23 x i8], [23 x i8]* %326, i64 0, i64 0, !dbg !3003
  store i8* %327, i8** %26, align 8, !dbg !3009
  %328 = load i8*, i8** %26, align 8, !dbg !3010
  store i8* %328, i8** %25, align 8, !dbg !3011
  %329 = load i8*, i8** %25, align 8, !dbg !3012
  br label %330, !dbg !2987

; <label>:330:                                    ; preds = %317, %306
  %331 = phi i8* [ %316, %306 ], [ %329, %317 ], !dbg !2987
  store i8* %331, i8** %21, align 8, !dbg !3013
  %332 = load i8*, i8** %21, align 8, !dbg !3014
  store %"class.std::__1::basic_string"* %289, %"class.std::__1::basic_string"** %10, align 8, !dbg !3015
  %333 = load %"class.std::__1::basic_string"*, %"class.std::__1::basic_string"** %10, align 8, !dbg !3015
  store %"class.std::__1::basic_string"* %333, %"class.std::__1::basic_string"** %9, align 8, !dbg !3016
  %334 = load %"class.std::__1::basic_string"*, %"class.std::__1::basic_string"** %9, align 8, !dbg !3016
  %335 = getelementptr inbounds %"class.std::__1::basic_string", %"class.std::__1::basic_string"* %334, i32 0, i32 0, !dbg !3017
  store %"class.std::__1::__compressed_pair"* %335, %"class.std::__1::__compressed_pair"** %8, align 8, !dbg !3018
  %336 = load %"class.std::__1::__compressed_pair"*, %"class.std::__1::__compressed_pair"** %8, align 8, !dbg !3018
  %337 = bitcast %"class.std::__1::__compressed_pair"* %336 to %"class.std::__1::__libcpp_compressed_pair_imp"*, !dbg !3019
  store %"class.std::__1::__libcpp_compressed_pair_imp"* %337, %"class.std::__1::__libcpp_compressed_pair_imp"** %7, align 8, !dbg !3019
  %338 = load %"class.std::__1::__libcpp_compressed_pair_imp"*, %"class.std::__1::__libcpp_compressed_pair_imp"** %7, align 8, !dbg !3019
  %339 = getelementptr inbounds %"class.std::__1::__libcpp_compressed_pair_imp", %"class.std::__1::__libcpp_compressed_pair_imp"* %338, i32 0, i32 0, !dbg !3020
  %340 = getelementptr inbounds %"struct.std::__1::basic_string<char, std::__1::char_traits<char>, std::__1::allocator<char> >::__rep", %"struct.std::__1::basic_string<char, std::__1::char_traits<char>, std::__1::allocator<char> >::__rep"* %339, i32 0, i32 0, !dbg !3021
  %341 = bitcast %union.anon* %340 to %"struct.std::__1::basic_string<char, std::__1::char_traits<char>, std::__1::allocator<char> >::__short"*, !dbg !3021
  %342 = getelementptr inbounds %"struct.std::__1::basic_string<char, std::__1::char_traits<char>, std::__1::allocator<char> >::__short", %"struct.std::__1::basic_string<char, std::__1::char_traits<char>, std::__1::allocator<char> >::__short"* %341, i32 0, i32 0, !dbg !3022
  %343 = bitcast %union.anon.0* %342 to i8*, !dbg !3022
  %344 = load i8, i8* %343, align 8, !dbg !3022
  %345 = zext i8 %344 to i32, !dbg !3017
  %346 = and i32 %345, 1, !dbg !3023
  %347 = icmp ne i32 %346, 0, !dbg !3017
  br i1 %347, label %348, label %359, !dbg !3016

; <label>:348:                                    ; preds = %330
  store %"class.std::__1::basic_string"* %333, %"class.std::__1::basic_string"** %3, align 8, !dbg !3024
  %349 = load %"class.std::__1::basic_string"*, %"class.std::__1::basic_string"** %3, align 8, !dbg !3024
  %350 = getelementptr inbounds %"class.std::__1::basic_string", %"class.std::__1::basic_string"* %349, i32 0, i32 0, !dbg !3025
  store %"class.std::__1::__compressed_pair"* %350, %"class.std::__1::__compressed_pair"** %2, align 8, !dbg !3026
  %351 = load %"class.std::__1::__compressed_pair"*, %"class.std::__1::__compressed_pair"** %2, align 8, !dbg !3026
  %352 = bitcast %"class.std::__1::__compressed_pair"* %351 to %"class.std::__1::__libcpp_compressed_pair_imp"*, !dbg !3027
  store %"class.std::__1::__libcpp_compressed_pair_imp"* %352, %"class.std::__1::__libcpp_compressed_pair_imp"** %1, align 8, !dbg !3027
  %353 = load %"class.std::__1::__libcpp_compressed_pair_imp"*, %"class.std::__1::__libcpp_compressed_pair_imp"** %1, align 8, !dbg !3027
  %354 = getelementptr inbounds %"class.std::__1::__libcpp_compressed_pair_imp", %"class.std::__1::__libcpp_compressed_pair_imp"* %353, i32 0, i32 0, !dbg !3028
  %355 = getelementptr inbounds %"struct.std::__1::basic_string<char, std::__1::char_traits<char>, std::__1::allocator<char> >::__rep", %"struct.std::__1::basic_string<char, std::__1::char_traits<char>, std::__1::allocator<char> >::__rep"* %354, i32 0, i32 0, !dbg !3029
  %356 = bitcast %union.anon* %355 to %"struct.std::__1::basic_string<char, std::__1::char_traits<char>, std::__1::allocator<char> >::__long"*, !dbg !3029
  %357 = getelementptr inbounds %"struct.std::__1::basic_string<char, std::__1::char_traits<char>, std::__1::allocator<char> >::__long", %"struct.std::__1::basic_string<char, std::__1::char_traits<char>, std::__1::allocator<char> >::__long"* %356, i32 0, i32 1, !dbg !3030
  %358 = load i64, i64* %357, align 8, !dbg !3030
  br label %374, !dbg !3016

; <label>:359:                                    ; preds = %330
  store %"class.std::__1::basic_string"* %333, %"class.std::__1::basic_string"** %6, align 8, !dbg !3031
  %360 = load %"class.std::__1::basic_string"*, %"class.std::__1::basic_string"** %6, align 8, !dbg !3031
  %361 = getelementptr inbounds %"class.std::__1::basic_string", %"class.std::__1::basic_string"* %360, i32 0, i32 0, !dbg !3032
  store %"class.std::__1::__compressed_pair"* %361, %"class.std::__1::__compressed_pair"** %5, align 8, !dbg !3033
  %362 = load %"class.std::__1::__compressed_pair"*, %"class.std::__1::__compressed_pair"** %5, align 8, !dbg !3033
  %363 = bitcast %"class.std::__1::__compressed_pair"* %362 to %"class.std::__1::__libcpp_compressed_pair_imp"*, !dbg !3034
  store %"class.std::__1::__libcpp_compressed_pair_imp"* %363, %"class.std::__1::__libcpp_compressed_pair_imp"** %4, align 8, !dbg !3034
  %364 = load %"class.std::__1::__libcpp_compressed_pair_imp"*, %"class.std::__1::__libcpp_compressed_pair_imp"** %4, align 8, !dbg !3034
  %365 = getelementptr inbounds %"class.std::__1::__libcpp_compressed_pair_imp", %"class.std::__1::__libcpp_compressed_pair_imp"* %364, i32 0, i32 0, !dbg !3035
  %366 = getelementptr inbounds %"struct.std::__1::basic_string<char, std::__1::char_traits<char>, std::__1::allocator<char> >::__rep", %"struct.std::__1::basic_string<char, std::__1::char_traits<char>, std::__1::allocator<char> >::__rep"* %365, i32 0, i32 0, !dbg !3036
  %367 = bitcast %union.anon* %366 to %"struct.std::__1::basic_string<char, std::__1::char_traits<char>, std::__1::allocator<char> >::__short"*, !dbg !3036
  %368 = getelementptr inbounds %"struct.std::__1::basic_string<char, std::__1::char_traits<char>, std::__1::allocator<char> >::__short", %"struct.std::__1::basic_string<char, std::__1::char_traits<char>, std::__1::allocator<char> >::__short"* %367, i32 0, i32 0, !dbg !3037
  %369 = bitcast %union.anon.0* %368 to i8*, !dbg !3037
  %370 = load i8, i8* %369, align 8, !dbg !3037
  %371 = zext i8 %370 to i32, !dbg !3032
  %372 = ashr i32 %371, 1, !dbg !3038
  %373 = sext i32 %372 to i64, !dbg !3032
  br label %374, !dbg !3016

; <label>:374:                                    ; preds = %359, %348
  %375 = phi i64 [ %358, %348 ], [ %373, %359 ], !dbg !3016
  %376 = load i8*, i8** %36, align 8, !dbg !3039
  %377 = load i64, i64* %37, align 8, !dbg !3040
  %378 = load i8*, i8** %36, align 8, !dbg !3041
  %379 = invoke i64 @_ZNSt3__111char_traitsIcE6lengthEPKc(i8* %378)
          to label %380 unwind label %433, !dbg !3042

; <label>:380:                                    ; preds = %374
  store i8* %332, i8** %12, align 8, !dbg !3043
  store i64 %375, i64* %13, align 8, !dbg !3043
  store i8* %376, i8** %14, align 8, !dbg !3043
  store i64 %377, i64* %15, align 8, !dbg !3043
  store i64 %379, i64* %16, align 8, !dbg !3043
  %381 = load i64, i64* %15, align 8, !dbg !3044
  %382 = load i64, i64* %13, align 8, !dbg !3045
  %383 = icmp ugt i64 %381, %382, !dbg !3046
  br i1 %383, label %390, label %384, !dbg !3047

; <label>:384:                                    ; preds = %380
  %385 = load i64, i64* %13, align 8, !dbg !3048
  %386 = load i64, i64* %15, align 8, !dbg !3049
  %387 = sub i64 %385, %386, !dbg !3050
  %388 = load i64, i64* %16, align 8, !dbg !3051
  %389 = icmp ult i64 %387, %388, !dbg !3052
  br i1 %389, label %390, label %391, !dbg !3053

; <label>:390:                                    ; preds = %384, %380
  store i64 -1, i64* %11, align 8, !dbg !3054
  br label %438, !dbg !3054

; <label>:391:                                    ; preds = %384
  %392 = load i64, i64* %16, align 8, !dbg !3055
  %393 = icmp eq i64 %392, 0, !dbg !3056
  br i1 %393, label %394, label %396, !dbg !3057

; <label>:394:                                    ; preds = %391
  %395 = load i64, i64* %15, align 8, !dbg !3058
  store i64 %395, i64* %11, align 8, !dbg !3059
  br label %438, !dbg !3059

; <label>:396:                                    ; preds = %391
  %397 = load i8*, i8** %12, align 8, !dbg !3060
  %398 = load i64, i64* %15, align 8, !dbg !3061
  %399 = getelementptr inbounds i8, i8* %397, i64 %398, !dbg !3062
  %400 = load i8*, i8** %12, align 8, !dbg !3063
  %401 = load i64, i64* %13, align 8, !dbg !3064
  %402 = getelementptr inbounds i8, i8* %400, i64 %401, !dbg !3065
  %403 = load i8*, i8** %14, align 8, !dbg !3066
  %404 = load i8*, i8** %14, align 8, !dbg !3067
  %405 = load i64, i64* %16, align 8, !dbg !3068
  %406 = getelementptr inbounds i8, i8* %404, i64 %405, !dbg !3069
  %407 = invoke { i8*, i8* } @_ZNSt3__18__searchIPFbccEPKcS4_EENS_4pairIT0_S6_EES6_S6_T1_S8_T_NS_26random_access_iterator_tagESA_(i8* %399, i8* %402, i8* %403, i8* %406, i1 (i8, i8)* @_ZNSt3__111char_traitsIcE2eqEcc)
          to label %408 unwind label %422, !dbg !3070

; <label>:408:                                    ; preds = %396
  %409 = bitcast %"struct.std::__1::pair"* %20 to { i8*, i8* }*, !dbg !3070
  %410 = getelementptr inbounds { i8*, i8* }, { i8*, i8* }* %409, i32 0, i32 0, !dbg !3070
  %411 = extractvalue { i8*, i8* } %407, 0, !dbg !3070
  store i8* %411, i8** %410, align 8, !dbg !3070
  %412 = getelementptr inbounds { i8*, i8* }, { i8*, i8* }* %409, i32 0, i32 1, !dbg !3070
  %413 = extractvalue { i8*, i8* } %407, 1, !dbg !3070
  store i8* %413, i8** %412, align 8, !dbg !3070
  %414 = getelementptr inbounds %"struct.std::__1::pair", %"struct.std::__1::pair"* %20, i32 0, i32 0, !dbg !3071
  %415 = load i8*, i8** %414, align 8, !dbg !3071
  store i8* %415, i8** %17, align 8, !dbg !2728
  %416 = load i8*, i8** %17, align 8, !dbg !3072
  %417 = load i8*, i8** %12, align 8, !dbg !3073
  %418 = load i64, i64* %13, align 8, !dbg !3074
  %419 = getelementptr inbounds i8, i8* %417, i64 %418, !dbg !3075
  %420 = icmp eq i8* %416, %419, !dbg !3076
  br i1 %420, label %421, label %427, !dbg !3077

; <label>:421:                                    ; preds = %408
  store i64 -1, i64* %11, align 8, !dbg !3078
  br label %438, !dbg !3078

; <label>:422:                                    ; preds = %396
  %423 = landingpad { i8*, i32 }
          filter [0 x i8*] zeroinitializer, !dbg !3079
  %424 = extractvalue { i8*, i32 } %423, 0, !dbg !3079
  store i8* %424, i8** %18, align 8, !dbg !3079
  %425 = extractvalue { i8*, i32 } %423, 1, !dbg !3079
  store i32 %425, i32* %19, align 4, !dbg !3079
  %426 = load i8*, i8** %18, align 8, !dbg !3079
  call void @__cxa_call_unexpected(i8* %426) #9, !dbg !3079
  unreachable, !dbg !3079

; <label>:427:                                    ; preds = %408
  %428 = load i8*, i8** %17, align 8, !dbg !3080
  %429 = load i8*, i8** %12, align 8, !dbg !3081
  %430 = ptrtoint i8* %428 to i64, !dbg !3082
  %431 = ptrtoint i8* %429 to i64, !dbg !3082
  %432 = sub i64 %430, %431, !dbg !3082
  store i64 %432, i64* %11, align 8, !dbg !3083
  br label %438, !dbg !3083

; <label>:433:                                    ; preds = %374
  %434 = landingpad { i8*, i32 }
          filter [0 x i8*] zeroinitializer, !dbg !3084
  %435 = extractvalue { i8*, i32 } %434, 0, !dbg !3084
  store i8* %435, i8** %38, align 8, !dbg !3084
  %436 = extractvalue { i8*, i32 } %434, 1, !dbg !3084
  store i32 %436, i32* %39, align 4, !dbg !3084
  %437 = load i8*, i8** %38, align 8, !dbg !3085
  call void @__cxa_call_unexpected(i8* %437) #9, !dbg !3085
  unreachable, !dbg !3085

; <label>:438:                                    ; preds = %390, %394, %421, %427
  %439 = load i64, i64* %11, align 8, !dbg !3079
  %440 = icmp ne i64 %439, -1, !dbg !3086
  br i1 %440, label %441, label %452, !dbg !3087

; <label>:441:                                    ; preds = %438
  %442 = invoke i32 (i8*, ...) @printf(i8* getelementptr inbounds ([13 x i8], [13 x i8]* @.str.2, i32 0, i32 0))
          to label %443 unwind label %448, !dbg !3088

; <label>:443:                                    ; preds = %441
  store i1 true, i1* %95, align 1, !dbg !3090
  store i32 1, i32* %100, align 4
  br label %455, !dbg !3090

