; ModuleID = './Test.cpp'
source_filename = "./Test.cpp"
target datalayout = "e-m:o-i64:64-f80:128-n8:16:32:64-S128"
target triple = "x86_64-apple-macosx10.12.0"

%"class.testing::TestInfo" = type { %"class.std::__1::basic_string", %"class.std::__1::basic_string", %"class.testing::internal::scoped_ptr", %"class.testing::internal::scoped_ptr", %"struct.testing::internal::CodeLocation", i8*, i8, i8, i8, %"class.testing::internal::TestFactoryBase"*, %"class.testing::TestResult" }
%"class.std::__1::basic_string" = type { %"class.std::__1::__compressed_pair" }
%"class.std::__1::__compressed_pair" = type { %"class.std::__1::__libcpp_compressed_pair_imp" }
%"class.std::__1::__libcpp_compressed_pair_imp" = type { %"struct.std::__1::basic_string<char, std::__1::char_traits<char>, std::__1::allocator<char> >::__rep" }
%"struct.std::__1::basic_string<char, std::__1::char_traits<char>, std::__1::allocator<char> >::__rep" = type { %union.anon }
%union.anon = type { %"struct.std::__1::basic_string<char, std::__1::char_traits<char>, std::__1::allocator<char> >::__long" }
%"struct.std::__1::basic_string<char, std::__1::char_traits<char>, std::__1::allocator<char> >::__long" = type { i64, i64, i8* }
%"class.testing::internal::scoped_ptr" = type { %"class.std::__1::basic_string"* }
%"struct.testing::internal::CodeLocation" = type <{ %"class.std::__1::basic_string", i32, [4 x i8] }>
%"class.testing::internal::TestFactoryBase" = type { i32 (...)** }
%"class.testing::TestResult" = type { %"class.testing::internal::Mutex", %"class.std::__1::vector", %"class.std::__1::vector.5", i32, i64 }
%"class.testing::internal::Mutex" = type { %"class.testing::internal::MutexBase" }
%"class.testing::internal::MutexBase" = type { %struct._opaque_pthread_mutex_t, i8, %struct._opaque_pthread_t* }
%struct._opaque_pthread_mutex_t = type { i64, [56 x i8] }
%struct._opaque_pthread_t = type { i64, %struct.__darwin_pthread_handler_rec*, [8176 x i8] }
%struct.__darwin_pthread_handler_rec = type { void (i8*)*, i8*, %struct.__darwin_pthread_handler_rec* }
%"class.std::__1::vector" = type { %"class.std::__1::__vector_base" }
%"class.std::__1::__vector_base" = type { %"class.testing::TestPartResult"*, %"class.testing::TestPartResult"*, %"class.std::__1::__compressed_pair.1" }
%"class.testing::TestPartResult" = type { i32, %"class.std::__1::basic_string", i32, %"class.std::__1::basic_string", %"class.std::__1::basic_string" }
%"class.std::__1::__compressed_pair.1" = type { %"class.std::__1::__libcpp_compressed_pair_imp.2" }
%"class.std::__1::__libcpp_compressed_pair_imp.2" = type { %"class.testing::TestPartResult"* }
%"class.std::__1::vector.5" = type { %"class.std::__1::__vector_base.6" }
%"class.std::__1::__vector_base.6" = type { %"class.testing::TestProperty"*, %"class.testing::TestProperty"*, %"class.std::__1::__compressed_pair.7" }
%"class.testing::TestProperty" = type { %"class.std::__1::basic_string", %"class.std::__1::basic_string" }
%"class.std::__1::__compressed_pair.7" = type { %"class.std::__1::__libcpp_compressed_pair_imp.8" }
%"class.std::__1::__libcpp_compressed_pair_imp.8" = type { %"class.testing::TestProperty"* }
%struct.__sFILE = type { i8*, i32, i32, i16, i16, %struct.__sbuf, i32, i8*, i32 (i8*)*, i32 (i8*, i8*, i32)*, i64 (i8*, i64, i32)*, i32 (i8*, i8*, i32)*, %struct.__sbuf, %struct.__sFILEX*, i32, [3 x i8], [1 x i8], %struct.__sbuf, i32, i64 }
%struct.__sFILEX = type opaque
%struct.__sbuf = type { i8*, i32 }
%"class.std::__1::allocator" = type { i8 }
%"class.std::__1::__basic_string_common" = type { i8 }
%"class.testing::internal::TestFactoryImpl" = type { %"class.testing::internal::TestFactoryBase" }
%class.HelloTest_testSumOfTestee_Test = type { %"class.testing::Test" }
%"class.testing::Test" = type { i32 (...)**, %"class.testing::internal::scoped_ptr.11" }
%"class.testing::internal::scoped_ptr.11" = type { %"class.testing::internal::GTestFlagSaver"* }
%"class.testing::internal::GTestFlagSaver" = type opaque
%class.Testee = type { i8 }
%"class.testing::AssertionResult" = type { i8, %"class.testing::internal::scoped_ptr.12" }
%"class.testing::internal::scoped_ptr.12" = type { %"class.std::__1::basic_string"* }
%"class.testing::internal::AssertHelper" = type { %"struct.testing::internal::AssertHelper::AssertHelperData"* }
%"struct.testing::internal::AssertHelper::AssertHelperData" = type { i32, i8*, i32, %"class.std::__1::basic_string" }
%"class.testing::Message" = type { %"class.testing::internal::scoped_ptr.13" }
%"class.testing::internal::scoped_ptr.13" = type { %"class.std::__1::basic_stringstream"* }
%"class.std::__1::basic_stringstream" = type { %"class.std::__1::basic_iostream.base", %"class.std::__1::basic_stringbuf", %"class.std::__1::basic_ios.base" }
%"class.std::__1::basic_iostream.base" = type { %"class.std::__1::basic_istream.base", %"class.std::__1::basic_ostream.base" }
%"class.std::__1::basic_istream.base" = type { i32 (...)**, i64 }
%"class.std::__1::basic_ostream.base" = type { i32 (...)** }
%"class.std::__1::basic_stringbuf" = type <{ %"class.std::__1::basic_streambuf", %"class.std::__1::basic_string", i8*, i32, [4 x i8] }>
%"class.std::__1::basic_streambuf" = type { i32 (...)**, %"class.std::__1::locale", i8*, i8*, i8*, i8*, i8*, i8* }
%"class.std::__1::locale" = type { %"class.std::__1::locale::__imp"* }
%"class.std::__1::locale::__imp" = type opaque
%"class.std::__1::basic_ios.base" = type <{ %"class.std::__1::ios_base", %"class.std::__1::basic_ostream"*, i32 }>
%"class.std::__1::ios_base" = type { i32 (...)**, i32, i64, i64, i32, i32, i8*, i8*, void (i32, %"class.std::__1::ios_base"*, i32)**, i32*, i64, i64, i64*, i64, i64, i8**, i64, i64 }
%"class.std::__1::basic_ostream" = type { i32 (...)**, %"class.std::__1::basic_ios.base" }
%"struct.testing::Test::Setup_should_be_spelled_SetUp" = type { i8 }
%"struct.std::__1::basic_string<char, std::__1::char_traits<char>, std::__1::allocator<char> >::__short" = type { %union.anon.0, [23 x i8] }
%union.anon.0 = type { i8 }
%"class.std::__1::basic_ios" = type <{ %"class.std::__1::ios_base", %"class.std::__1::basic_ostream"*, i32, [4 x i8] }>
%"class.std::__1::basic_istream" = type { i32 (...)**, i64, %"class.std::__1::basic_ios.base" }
%"class.std::__1::basic_iostream" = type { %"class.std::__1::basic_istream.base", %"class.std::__1::basic_ostream.base", %"class.std::__1::basic_ios.base" }
%"struct.std::__1::basic_string<char, std::__1::char_traits<char>, std::__1::allocator<char> >::__raw" = type { [3 x i64] }
%"class.std::__1::fpos" = type { %union.__mbstate_t, i64 }
%union.__mbstate_t = type { i64, [120 x i8] }
%"struct.std::__1::__less" = type { i8 }
%"struct.testing::internal::bool_constant" = type { i8 }
%"struct.testing::internal::is_pointer" = type { i8 }
%"struct.std::__1::__has_max_size" = type { i8 }
%"struct.std::__1::random_access_iterator_tag" = type { i8 }
%"struct.std::__1::integral_constant" = type { i8 }
%"class.std::length_error" = type { %"class.std::logic_error" }
%"class.std::logic_error" = type { %"class.std::exception", %"class.std::__1::__libcpp_refstring" }
%"class.std::exception" = type { i32 (...)** }
%"class.std::__1::__libcpp_refstring" = type { i8* }

@_ZN30HelloTest_testSumOfTestee_Test10test_info_E = global %"class.testing::TestInfo"* null, align 8
@.str = private unnamed_addr constant [10 x i8] c"HelloTest\00", align 1
@.str.1 = private unnamed_addr constant [16 x i8] c"testSumOfTestee\00", align 1
@.str.2 = private unnamed_addr constant [11 x i8] c"./Test.cpp\00", align 1
@.str.3 = private unnamed_addr constant [7 x i8] c"result\00", align 1
@.str.4 = private unnamed_addr constant [2 x i8] c"5\00", align 1
@_ZTV30HelloTest_testSumOfTestee_Test = unnamed_addr constant [8 x i8*] [i8* null, i8* bitcast ({ i8*, i8*, i8* }* @_ZTI30HelloTest_testSumOfTestee_Test to i8*), i8* bitcast (void (%class.HelloTest_testSumOfTestee_Test*)* @_ZN30HelloTest_testSumOfTestee_TestD1Ev to i8*), i8* bitcast (void (%class.HelloTest_testSumOfTestee_Test*)* @_ZN30HelloTest_testSumOfTestee_TestD0Ev to i8*), i8* bitcast (void (%"class.testing::Test"*)* @_ZN7testing4Test5SetUpEv to i8*), i8* bitcast (void (%"class.testing::Test"*)* @_ZN7testing4Test8TearDownEv to i8*), i8* bitcast (void (%class.HelloTest_testSumOfTestee_Test*)* @_ZN30HelloTest_testSumOfTestee_Test8TestBodyEv to i8*), i8* bitcast (%"struct.testing::Test::Setup_should_be_spelled_SetUp"* (%"class.testing::Test"*)* @_ZN7testing4Test5SetupEv to i8*)], align 8
@_ZTVN10__cxxabiv120__si_class_type_infoE = external global i8*
@_ZTS30HelloTest_testSumOfTestee_Test = constant [33 x i8] c"30HelloTest_testSumOfTestee_Test\00"
@_ZTIN7testing4TestE = external constant i8*
@_ZTI30HelloTest_testSumOfTestee_Test = constant { i8*, i8*, i8* } { i8* bitcast (i8** getelementptr inbounds (i8*, i8** @_ZTVN10__cxxabiv120__si_class_type_infoE, i64 2) to i8*), i8* getelementptr inbounds ([33 x i8], [33 x i8]* @_ZTS30HelloTest_testSumOfTestee_Test, i32 0, i32 0), i8* bitcast (i8** @_ZTIN7testing4TestE to i8*) }
@_ZTVN7testing8internal15TestFactoryImplI30HelloTest_testSumOfTestee_TestEE = linkonce_odr unnamed_addr constant [5 x i8*] [i8* null, i8* bitcast ({ i8*, i8*, i8* }* @_ZTIN7testing8internal15TestFactoryImplI30HelloTest_testSumOfTestee_TestEE to i8*), i8* bitcast (void (%"class.testing::internal::TestFactoryImpl"*)* @_ZN7testing8internal15TestFactoryImplI30HelloTest_testSumOfTestee_TestED1Ev to i8*), i8* bitcast (void (%"class.testing::internal::TestFactoryImpl"*)* @_ZN7testing8internal15TestFactoryImplI30HelloTest_testSumOfTestee_TestED0Ev to i8*), i8* bitcast (%"class.testing::Test"* (%"class.testing::internal::TestFactoryImpl"*)* @_ZN7testing8internal15TestFactoryImplI30HelloTest_testSumOfTestee_TestE10CreateTestEv to i8*)], align 8
@_ZTSN7testing8internal15TestFactoryImplI30HelloTest_testSumOfTestee_TestEE = linkonce_odr constant [71 x i8] c"N7testing8internal15TestFactoryImplI30HelloTest_testSumOfTestee_TestEE\00"
@_ZTVN10__cxxabiv117__class_type_infoE = external global i8*
@_ZTSN7testing8internal15TestFactoryBaseE = linkonce_odr constant [37 x i8] c"N7testing8internal15TestFactoryBaseE\00"
@_ZTIN7testing8internal15TestFactoryBaseE = linkonce_odr constant { i8*, i8* } { i8* bitcast (i8** getelementptr inbounds (i8*, i8** @_ZTVN10__cxxabiv117__class_type_infoE, i64 2) to i8*), i8* getelementptr inbounds ([37 x i8], [37 x i8]* @_ZTSN7testing8internal15TestFactoryBaseE, i32 0, i32 0) }
@_ZTIN7testing8internal15TestFactoryImplI30HelloTest_testSumOfTestee_TestEE = linkonce_odr constant { i8*, i8*, i8* } { i8* bitcast (i8** getelementptr inbounds (i8*, i8** @_ZTVN10__cxxabiv120__si_class_type_infoE, i64 2) to i8*), i8* getelementptr inbounds ([71 x i8], [71 x i8]* @_ZTSN7testing8internal15TestFactoryImplI30HelloTest_testSumOfTestee_TestEE, i32 0, i32 0), i8* bitcast ({ i8*, i8* }* @_ZTIN7testing8internal15TestFactoryBaseE to i8*) }
@_ZTVN7testing8internal15TestFactoryBaseE = linkonce_odr unnamed_addr constant [5 x i8*] [i8* null, i8* bitcast ({ i8*, i8* }* @_ZTIN7testing8internal15TestFactoryBaseE to i8*), i8* bitcast (void (%"class.testing::internal::TestFactoryBase"*)* @_ZN7testing8internal15TestFactoryBaseD1Ev to i8*), i8* bitcast (void (%"class.testing::internal::TestFactoryBase"*)* @_ZN7testing8internal15TestFactoryBaseD0Ev to i8*), i8* bitcast (void ()* @__cxa_pure_virtual to i8*)], align 8
@.str.5 = private unnamed_addr constant [1 x i8] zeroinitializer, align 1
@_ZTVNSt3__118basic_stringstreamIcNS_11char_traitsIcEENS_9allocatorIcEEEE = linkonce_odr unnamed_addr constant [15 x i8*] [i8* inttoptr (i64 128 to i8*), i8* null, i8* bitcast ({ i8*, i8*, i8* }* @_ZTINSt3__118basic_stringstreamIcNS_11char_traitsIcEENS_9allocatorIcEEEE to i8*), i8* bitcast (void (%"class.std::__1::basic_stringstream"*)* @_ZNSt3__118basic_stringstreamIcNS_11char_traitsIcEENS_9allocatorIcEEED1Ev to i8*), i8* bitcast (void (%"class.std::__1::basic_stringstream"*)* @_ZNSt3__118basic_stringstreamIcNS_11char_traitsIcEENS_9allocatorIcEEED0Ev to i8*), i8* inttoptr (i64 112 to i8*), i8* inttoptr (i64 -16 to i8*), i8* bitcast ({ i8*, i8*, i8* }* @_ZTINSt3__118basic_stringstreamIcNS_11char_traitsIcEENS_9allocatorIcEEEE to i8*), i8* bitcast (void (%"class.std::__1::basic_stringstream"*)* @_ZThn16_NSt3__118basic_stringstreamIcNS_11char_traitsIcEENS_9allocatorIcEEED1Ev to i8*), i8* bitcast (void (%"class.std::__1::basic_stringstream"*)* @_ZThn16_NSt3__118basic_stringstreamIcNS_11char_traitsIcEENS_9allocatorIcEEED0Ev to i8*), i8* inttoptr (i64 -128 to i8*), i8* inttoptr (i64 -128 to i8*), i8* bitcast ({ i8*, i8*, i8* }* @_ZTINSt3__118basic_stringstreamIcNS_11char_traitsIcEENS_9allocatorIcEEEE to i8*), i8* bitcast (void (%"class.std::__1::basic_stringstream"*)* @_ZTv0_n24_NSt3__118basic_stringstreamIcNS_11char_traitsIcEENS_9allocatorIcEEED1Ev to i8*), i8* bitcast (void (%"class.std::__1::basic_stringstream"*)* @_ZTv0_n24_NSt3__118basic_stringstreamIcNS_11char_traitsIcEENS_9allocatorIcEEED0Ev to i8*)], align 8
@_ZTTNSt3__118basic_stringstreamIcNS_11char_traitsIcEENS_9allocatorIcEEEE = linkonce_odr unnamed_addr constant [10 x i8*] [i8* bitcast (i8** getelementptr inbounds ([15 x i8*], [15 x i8*]* @_ZTVNSt3__118basic_stringstreamIcNS_11char_traitsIcEENS_9allocatorIcEEEE, i32 0, i32 3) to i8*), i8* bitcast (i8** getelementptr inbounds ([15 x i8*], [15 x i8*]* @_ZTCNSt3__118basic_stringstreamIcNS_11char_traitsIcEENS_9allocatorIcEEEE0_NS_14basic_iostreamIcS2_EE, i32 0, i32 3) to i8*), i8* bitcast (i8** getelementptr inbounds ([10 x i8*], [10 x i8*]* @_ZTCNSt3__118basic_stringstreamIcNS_11char_traitsIcEENS_9allocatorIcEEEE0_NS_13basic_istreamIcS2_EE, i32 0, i32 3) to i8*), i8* bitcast (i8** getelementptr inbounds ([10 x i8*], [10 x i8*]* @_ZTCNSt3__118basic_stringstreamIcNS_11char_traitsIcEENS_9allocatorIcEEEE0_NS_13basic_istreamIcS2_EE, i32 0, i32 8) to i8*), i8* bitcast (i8** getelementptr inbounds ([10 x i8*], [10 x i8*]* @_ZTCNSt3__118basic_stringstreamIcNS_11char_traitsIcEENS_9allocatorIcEEEE16_NS_13basic_ostreamIcS2_EE, i32 0, i32 3) to i8*), i8* bitcast (i8** getelementptr inbounds ([10 x i8*], [10 x i8*]* @_ZTCNSt3__118basic_stringstreamIcNS_11char_traitsIcEENS_9allocatorIcEEEE16_NS_13basic_ostreamIcS2_EE, i32 0, i32 8) to i8*), i8* bitcast (i8** getelementptr inbounds ([15 x i8*], [15 x i8*]* @_ZTCNSt3__118basic_stringstreamIcNS_11char_traitsIcEENS_9allocatorIcEEEE0_NS_14basic_iostreamIcS2_EE, i32 0, i32 13) to i8*), i8* bitcast (i8** getelementptr inbounds ([15 x i8*], [15 x i8*]* @_ZTCNSt3__118basic_stringstreamIcNS_11char_traitsIcEENS_9allocatorIcEEEE0_NS_14basic_iostreamIcS2_EE, i32 0, i32 8) to i8*), i8* bitcast (i8** getelementptr inbounds ([15 x i8*], [15 x i8*]* @_ZTVNSt3__118basic_stringstreamIcNS_11char_traitsIcEENS_9allocatorIcEEEE, i32 0, i32 13) to i8*), i8* bitcast (i8** getelementptr inbounds ([15 x i8*], [15 x i8*]* @_ZTVNSt3__118basic_stringstreamIcNS_11char_traitsIcEENS_9allocatorIcEEEE, i32 0, i32 8) to i8*)]
@_ZTCNSt3__118basic_stringstreamIcNS_11char_traitsIcEENS_9allocatorIcEEEE0_NS_14basic_iostreamIcS2_EE = linkonce_odr unnamed_addr constant [15 x i8*] [i8* inttoptr (i64 128 to i8*), i8* null, i8* bitcast (i8** @_ZTINSt3__114basic_iostreamIcNS_11char_traitsIcEEEE to i8*), i8* bitcast (void (%"class.std::__1::basic_iostream"*)* @_ZNSt3__114basic_iostreamIcNS_11char_traitsIcEEED1Ev to i8*), i8* bitcast (void (%"class.std::__1::basic_iostream"*)* @_ZNSt3__114basic_iostreamIcNS_11char_traitsIcEEED0Ev to i8*), i8* inttoptr (i64 112 to i8*), i8* inttoptr (i64 -16 to i8*), i8* bitcast (i8** @_ZTINSt3__114basic_iostreamIcNS_11char_traitsIcEEEE to i8*), i8* bitcast (void (%"class.std::__1::basic_iostream"*)* @_ZThn16_NSt3__114basic_iostreamIcNS_11char_traitsIcEEED1Ev to i8*), i8* bitcast (void (%"class.std::__1::basic_iostream"*)* @_ZThn16_NSt3__114basic_iostreamIcNS_11char_traitsIcEEED0Ev to i8*), i8* inttoptr (i64 -128 to i8*), i8* inttoptr (i64 -128 to i8*), i8* bitcast (i8** @_ZTINSt3__114basic_iostreamIcNS_11char_traitsIcEEEE to i8*), i8* bitcast (void (%"class.std::__1::basic_iostream"*)* @_ZTv0_n24_NSt3__114basic_iostreamIcNS_11char_traitsIcEEED1Ev to i8*), i8* bitcast (void (%"class.std::__1::basic_iostream"*)* @_ZTv0_n24_NSt3__114basic_iostreamIcNS_11char_traitsIcEEED0Ev to i8*)]
@_ZTINSt3__114basic_iostreamIcNS_11char_traitsIcEEEE = external constant i8*
@_ZTCNSt3__118basic_stringstreamIcNS_11char_traitsIcEENS_9allocatorIcEEEE0_NS_13basic_istreamIcS2_EE = linkonce_odr unnamed_addr constant [10 x i8*] [i8* inttoptr (i64 128 to i8*), i8* null, i8* bitcast (i8** @_ZTINSt3__113basic_istreamIcNS_11char_traitsIcEEEE to i8*), i8* bitcast (void (%"class.std::__1::basic_istream"*)* @_ZNSt3__113basic_istreamIcNS_11char_traitsIcEEED1Ev to i8*), i8* bitcast (void (%"class.std::__1::basic_istream"*)* @_ZNSt3__113basic_istreamIcNS_11char_traitsIcEEED0Ev to i8*), i8* inttoptr (i64 -128 to i8*), i8* inttoptr (i64 -128 to i8*), i8* bitcast (i8** @_ZTINSt3__113basic_istreamIcNS_11char_traitsIcEEEE to i8*), i8* bitcast (void (%"class.std::__1::basic_istream"*)* @_ZTv0_n24_NSt3__113basic_istreamIcNS_11char_traitsIcEEED1Ev to i8*), i8* bitcast (void (%"class.std::__1::basic_istream"*)* @_ZTv0_n24_NSt3__113basic_istreamIcNS_11char_traitsIcEEED0Ev to i8*)]
@_ZTINSt3__113basic_istreamIcNS_11char_traitsIcEEEE = external constant i8*
@_ZTCNSt3__118basic_stringstreamIcNS_11char_traitsIcEENS_9allocatorIcEEEE16_NS_13basic_ostreamIcS2_EE = linkonce_odr unnamed_addr constant [10 x i8*] [i8* inttoptr (i64 112 to i8*), i8* null, i8* bitcast (i8** @_ZTINSt3__113basic_ostreamIcNS_11char_traitsIcEEEE to i8*), i8* bitcast (void (%"class.std::__1::basic_ostream"*)* @_ZNSt3__113basic_ostreamIcNS_11char_traitsIcEEED1Ev to i8*), i8* bitcast (void (%"class.std::__1::basic_ostream"*)* @_ZNSt3__113basic_ostreamIcNS_11char_traitsIcEEED0Ev to i8*), i8* inttoptr (i64 -112 to i8*), i8* inttoptr (i64 -112 to i8*), i8* bitcast (i8** @_ZTINSt3__113basic_ostreamIcNS_11char_traitsIcEEEE to i8*), i8* bitcast (void (%"class.std::__1::basic_ostream"*)* @_ZTv0_n24_NSt3__113basic_ostreamIcNS_11char_traitsIcEEED1Ev to i8*), i8* bitcast (void (%"class.std::__1::basic_ostream"*)* @_ZTv0_n24_NSt3__113basic_ostreamIcNS_11char_traitsIcEEED0Ev to i8*)]
@_ZTINSt3__113basic_ostreamIcNS_11char_traitsIcEEEE = external constant i8*
@_ZTSNSt3__118basic_stringstreamIcNS_11char_traitsIcEENS_9allocatorIcEEEE = linkonce_odr constant [69 x i8] c"NSt3__118basic_stringstreamIcNS_11char_traitsIcEENS_9allocatorIcEEEE\00"
@_ZTINSt3__118basic_stringstreamIcNS_11char_traitsIcEENS_9allocatorIcEEEE = linkonce_odr constant { i8*, i8*, i8* } { i8* bitcast (i8** getelementptr inbounds (i8*, i8** @_ZTVN10__cxxabiv120__si_class_type_infoE, i64 2) to i8*), i8* getelementptr inbounds ([69 x i8], [69 x i8]* @_ZTSNSt3__118basic_stringstreamIcNS_11char_traitsIcEENS_9allocatorIcEEEE, i32 0, i32 0), i8* bitcast (i8** @_ZTINSt3__114basic_iostreamIcNS_11char_traitsIcEEEE to i8*) }
@_ZTVNSt3__19basic_iosIcNS_11char_traitsIcEEEE = external unnamed_addr constant [4 x i8*]
@_ZTVNSt3__18ios_baseE = external unnamed_addr constant [4 x i8*]
@_ZTVNSt3__115basic_stringbufIcNS_11char_traitsIcEENS_9allocatorIcEEEE = linkonce_odr unnamed_addr constant [16 x i8*] [i8* null, i8* bitcast ({ i8*, i8*, i8* }* @_ZTINSt3__115basic_stringbufIcNS_11char_traitsIcEENS_9allocatorIcEEEE to i8*), i8* bitcast (void (%"class.std::__1::basic_stringbuf"*)* @_ZNSt3__115basic_stringbufIcNS_11char_traitsIcEENS_9allocatorIcEEED1Ev to i8*), i8* bitcast (void (%"class.std::__1::basic_stringbuf"*)* @_ZNSt3__115basic_stringbufIcNS_11char_traitsIcEENS_9allocatorIcEEED0Ev to i8*), i8* bitcast (void (%"class.std::__1::basic_streambuf"*, %"class.std::__1::locale"*)* @_ZNSt3__115basic_streambufIcNS_11char_traitsIcEEE5imbueERKNS_6localeE to i8*), i8* bitcast (%"class.std::__1::basic_streambuf"* (%"class.std::__1::basic_streambuf"*, i8*, i64)* @_ZNSt3__115basic_streambufIcNS_11char_traitsIcEEE6setbufEPcl to i8*), i8* bitcast (void (%"class.std::__1::fpos"*, %"class.std::__1::basic_stringbuf"*, i64, i32, i32)* @_ZNSt3__115basic_stringbufIcNS_11char_traitsIcEENS_9allocatorIcEEE7seekoffExNS_8ios_base7seekdirEj to i8*), i8* bitcast (void (%"class.std::__1::fpos"*, %"class.std::__1::basic_stringbuf"*, %"class.std::__1::fpos"*, i32)* @_ZNSt3__115basic_stringbufIcNS_11char_traitsIcEENS_9allocatorIcEEE7seekposENS_4fposI11__mbstate_tEEj to i8*), i8* bitcast (i32 (%"class.std::__1::basic_streambuf"*)* @_ZNSt3__115basic_streambufIcNS_11char_traitsIcEEE4syncEv to i8*), i8* bitcast (i64 (%"class.std::__1::basic_streambuf"*)* @_ZNSt3__115basic_streambufIcNS_11char_traitsIcEEE9showmanycEv to i8*), i8* bitcast (i64 (%"class.std::__1::basic_streambuf"*, i8*, i64)* @_ZNSt3__115basic_streambufIcNS_11char_traitsIcEEE6xsgetnEPcl to i8*), i8* bitcast (i32 (%"class.std::__1::basic_stringbuf"*)* @_ZNSt3__115basic_stringbufIcNS_11char_traitsIcEENS_9allocatorIcEEE9underflowEv to i8*), i8* bitcast (i32 (%"class.std::__1::basic_streambuf"*)* @_ZNSt3__115basic_streambufIcNS_11char_traitsIcEEE5uflowEv to i8*), i8* bitcast (i32 (%"class.std::__1::basic_stringbuf"*, i32)* @_ZNSt3__115basic_stringbufIcNS_11char_traitsIcEENS_9allocatorIcEEE9pbackfailEi to i8*), i8* bitcast (i64 (%"class.std::__1::basic_streambuf"*, i8*, i64)* @_ZNSt3__115basic_streambufIcNS_11char_traitsIcEEE6xsputnEPKcl to i8*), i8* bitcast (i32 (%"class.std::__1::basic_stringbuf"*, i32)* @_ZNSt3__115basic_stringbufIcNS_11char_traitsIcEENS_9allocatorIcEEE8overflowEi to i8*)], align 8
@_ZTSNSt3__115basic_stringbufIcNS_11char_traitsIcEENS_9allocatorIcEEEE = linkonce_odr constant [66 x i8] c"NSt3__115basic_stringbufIcNS_11char_traitsIcEENS_9allocatorIcEEEE\00"
@_ZTINSt3__115basic_streambufIcNS_11char_traitsIcEEEE = external constant i8*
@_ZTINSt3__115basic_stringbufIcNS_11char_traitsIcEENS_9allocatorIcEEEE = linkonce_odr constant { i8*, i8*, i8* } { i8* bitcast (i8** getelementptr inbounds (i8*, i8** @_ZTVN10__cxxabiv120__si_class_type_infoE, i64 2) to i8*), i8* getelementptr inbounds ([66 x i8], [66 x i8]* @_ZTSNSt3__115basic_stringbufIcNS_11char_traitsIcEENS_9allocatorIcEEEE, i32 0, i32 0), i8* bitcast (i8** @_ZTINSt3__115basic_streambufIcNS_11char_traitsIcEEEE to i8*) }
@.str.6 = private unnamed_addr constant [68 x i8] c"allocator<T>::allocate(size_t n) 'n' exceeds maximum supported size\00", align 1
@__stderrp = external global %struct.__sFILE*, align 8
@.str.7 = private unnamed_addr constant [4 x i8] c"%s\0A\00", align 1
@_ZTVSt12length_error = external unnamed_addr constant [5 x i8*]
@llvm.global_ctors = appending global [1 x { i32, void ()*, i8* }] [{ i32, void ()*, i8* } { i32 65535, void ()* @_GLOBAL__sub_I_Test.cpp, i8* null }]

; Function Attrs: nounwind ssp uwtable
define internal void @__cxx_global_var_init() #0 section "__TEXT,__StaticInit,regular,pure_instructions" !dbg !3974 {
  %1 = alloca %"class.std::__1::allocator"*, align 8
  call void @llvm.dbg.declare(metadata %"class.std::__1::allocator"** %1, metadata !3975, metadata !3978), !dbg !3979
  %2 = alloca %"class.std::__1::__libcpp_compressed_pair_imp"*, align 8
  call void @llvm.dbg.declare(metadata %"class.std::__1::__libcpp_compressed_pair_imp"** %2, metadata !3991, metadata !3978), !dbg !3993
  %3 = alloca %"class.std::__1::__compressed_pair"*, align 8
  call void @llvm.dbg.declare(metadata %"class.std::__1::__compressed_pair"** %3, metadata !3994, metadata !3978), !dbg !3996
  %4 = alloca %"class.std::__1::__compressed_pair"*, align 8
  call void @llvm.dbg.declare(metadata %"class.std::__1::__compressed_pair"** %4, metadata !3997, metadata !3978), !dbg !3998
  %5 = alloca %"class.std::__1::basic_string"*, align 8
  call void @llvm.dbg.declare(metadata %"class.std::__1::basic_string"** %5, metadata !3999, metadata !3978), !dbg !4001
  %6 = alloca i8*, align 8
  call void @llvm.dbg.declare(metadata i8** %6, metadata !4002, metadata !3978), !dbg !4003
  %7 = alloca %"class.std::__1::basic_string"*, align 8
  call void @llvm.dbg.declare(metadata %"class.std::__1::basic_string"** %7, metadata !4004, metadata !3978), !dbg !4005
  %8 = alloca i8*, align 8
  call void @llvm.dbg.declare(metadata i8** %8, metadata !4006, metadata !3978), !dbg !4007
  %9 = alloca %"struct.testing::internal::CodeLocation", align 8
  %10 = alloca %"class.std::__1::basic_string", align 8
  store %"class.std::__1::basic_string"* %10, %"class.std::__1::basic_string"** %7, align 8, !dbg !4008
  store i8* getelementptr inbounds ([11 x i8], [11 x i8]* @.str.2, i32 0, i32 0), i8** %8, align 8, !dbg !4008
  %11 = load %"class.std::__1::basic_string"*, %"class.std::__1::basic_string"** %7, align 8, !dbg !4008
  %12 = load i8*, i8** %8, align 8, !dbg !4009
  store %"class.std::__1::basic_string"* %11, %"class.std::__1::basic_string"** %5, align 8, !dbg !4009
  store i8* %12, i8** %6, align 8, !dbg !4009
  %13 = load %"class.std::__1::basic_string"*, %"class.std::__1::basic_string"** %5, align 8, !dbg !4009
  %14 = bitcast %"class.std::__1::basic_string"* %13 to %"class.std::__1::__basic_string_common"*, !dbg !4010
  %15 = getelementptr inbounds %"class.std::__1::basic_string", %"class.std::__1::basic_string"* %13, i32 0, i32 0, !dbg !4011
  store %"class.std::__1::__compressed_pair"* %15, %"class.std::__1::__compressed_pair"** %4, align 8, !dbg !4011
  %16 = load %"class.std::__1::__compressed_pair"*, %"class.std::__1::__compressed_pair"** %4, align 8, !dbg !4011
  store %"class.std::__1::__compressed_pair"* %16, %"class.std::__1::__compressed_pair"** %3, align 8, !dbg !4012
  %17 = load %"class.std::__1::__compressed_pair"*, %"class.std::__1::__compressed_pair"** %3, align 8, !dbg !4012
  %18 = bitcast %"class.std::__1::__compressed_pair"* %17 to %"class.std::__1::__libcpp_compressed_pair_imp"*, !dbg !4013
  store %"class.std::__1::__libcpp_compressed_pair_imp"* %18, %"class.std::__1::__libcpp_compressed_pair_imp"** %2, align 8, !dbg !4014
  %19 = load %"class.std::__1::__libcpp_compressed_pair_imp"*, %"class.std::__1::__libcpp_compressed_pair_imp"** %2, align 8, !dbg !4014
  %20 = bitcast %"class.std::__1::__libcpp_compressed_pair_imp"* %19 to %"class.std::__1::allocator"*, !dbg !4015
  store %"class.std::__1::allocator"* %20, %"class.std::__1::allocator"** %1, align 8, !dbg !4016
  %21 = load %"class.std::__1::allocator"*, %"class.std::__1::allocator"** %1, align 8, !dbg !4016
  %22 = getelementptr inbounds %"class.std::__1::__libcpp_compressed_pair_imp", %"class.std::__1::__libcpp_compressed_pair_imp"* %19, i32 0, i32 0, !dbg !4017
  %23 = bitcast %"struct.std::__1::basic_string<char, std::__1::char_traits<char>, std::__1::allocator<char> >::__rep"* %22 to i8*, !dbg !4017
  call void @llvm.memset.p0i8.i64(i8* %23, i8 0, i64 24, i32 8, i1 false) #10, !dbg !4017
  %24 = load i8*, i8** %6, align 8, !dbg !4018
  %25 = load i8*, i8** %6, align 8, !dbg !4020
  %26 = call i64 @_ZNSt3__111char_traitsIcE6lengthEPKc(i8* %25) #10, !dbg !4021
  call void @_ZNSt3__112basic_stringIcNS_11char_traitsIcEENS_9allocatorIcEEE6__initEPKcm(%"class.std::__1::basic_string"* %13, i8* %24, i64 %26) #10, !dbg !4022
  call void @_ZN7testing8internal12CodeLocationC1ERKNSt3__112basic_stringIcNS2_11char_traitsIcEENS2_9allocatorIcEEEEi(%"struct.testing::internal::CodeLocation"* %9, %"class.std::__1::basic_string"* dereferenceable(24) %10, i32 5), !dbg !4008
  %27 = call i8* @_ZN7testing8internal13GetTestTypeIdEv(), !dbg !4008
  %28 = call i8* @_Znwm(i64 8) #11, !dbg !4008
  %29 = bitcast i8* %28 to %"class.testing::internal::TestFactoryImpl"*, !dbg !4008
  call void @_ZN7testing8internal15TestFactoryImplI30HelloTest_testSumOfTestee_TestEC1Ev(%"class.testing::internal::TestFactoryImpl"* %29), !dbg !4008
  %30 = bitcast %"class.testing::internal::TestFactoryImpl"* %29 to %"class.testing::internal::TestFactoryBase"*, !dbg !4008
  %31 = call %"class.testing::TestInfo"* @_ZN7testing8internal23MakeAndRegisterTestInfoEPKcS2_S2_S2_NS0_12CodeLocationEPKvPFvvES7_PNS0_15TestFactoryBaseE(i8* getelementptr inbounds ([10 x i8], [10 x i8]* @.str, i32 0, i32 0), i8* getelementptr inbounds ([16 x i8], [16 x i8]* @.str.1, i32 0, i32 0), i8* null, i8* null, %"struct.testing::internal::CodeLocation"* %9, i8* %27, void ()* @_ZN7testing4Test13SetUpTestCaseEv, void ()* @_ZN7testing4Test16TearDownTestCaseEv, %"class.testing::internal::TestFactoryBase"* %30), !dbg !4008
  call void @_ZN7testing8internal12CodeLocationD1Ev(%"struct.testing::internal::CodeLocation"* %9) #10, !dbg !4008
  call void @_ZNSt3__112basic_stringIcNS_11char_traitsIcEENS_9allocatorIcEEED1Ev(%"class.std::__1::basic_string"* %10) #10, !dbg !4008
  store %"class.testing::TestInfo"* %31, %"class.testing::TestInfo"** @_ZN30HelloTest_testSumOfTestee_Test10test_info_E, align 8, !dbg !4008
  ret void, !dbg !4008
}

declare %"class.testing::TestInfo"* @_ZN7testing8internal23MakeAndRegisterTestInfoEPKcS2_S2_S2_NS0_12CodeLocationEPKvPFvvES7_PNS0_15TestFactoryBaseE(i8*, i8*, i8*, i8*, %"struct.testing::internal::CodeLocation"*, i8*, void ()*, void ()*, %"class.testing::internal::TestFactoryBase"*) #1

; Function Attrs: nounwind ssp uwtable
define linkonce_odr void @_ZN7testing8internal12CodeLocationC1ERKNSt3__112basic_stringIcNS2_11char_traitsIcEENS2_9allocatorIcEEEEi(%"struct.testing::internal::CodeLocation"*, %"class.std::__1::basic_string"* dereferenceable(24), i32) unnamed_addr #0 align 2 !dbg !4023 {
  %4 = alloca %"struct.testing::internal::CodeLocation"*, align 8
  %5 = alloca %"class.std::__1::basic_string"*, align 8
  %6 = alloca i32, align 4
  store %"struct.testing::internal::CodeLocation"* %0, %"struct.testing::internal::CodeLocation"** %4, align 8
  call void @llvm.dbg.declare(metadata %"struct.testing::internal::CodeLocation"** %4, metadata !4024, metadata !3978), !dbg !4026
  store %"class.std::__1::basic_string"* %1, %"class.std::__1::basic_string"** %5, align 8
  call void @llvm.dbg.declare(metadata %"class.std::__1::basic_string"** %5, metadata !4027, metadata !3978), !dbg !4028
  store i32 %2, i32* %6, align 4
  call void @llvm.dbg.declare(metadata i32* %6, metadata !4029, metadata !3978), !dbg !4030
  %7 = load %"struct.testing::internal::CodeLocation"*, %"struct.testing::internal::CodeLocation"** %4, align 8
  %8 = load %"class.std::__1::basic_string"*, %"class.std::__1::basic_string"** %5, align 8, !dbg !4031
  %9 = load i32, i32* %6, align 4, !dbg !4031
  call void @_ZN7testing8internal12CodeLocationC2ERKNSt3__112basic_stringIcNS2_11char_traitsIcEENS2_9allocatorIcEEEEi(%"struct.testing::internal::CodeLocation"* %7, %"class.std::__1::basic_string"* dereferenceable(24) %8, i32 %9), !dbg !4031
  ret void, !dbg !4032
}

declare i8* @_ZN7testing8internal13GetTestTypeIdEv() #1

; Function Attrs: nounwind ssp uwtable
define linkonce_odr void @_ZN7testing4Test13SetUpTestCaseEv() #0 align 2 !dbg !4033 {
  ret void, !dbg !4034
}

; Function Attrs: nounwind ssp uwtable
define linkonce_odr void @_ZN7testing4Test16TearDownTestCaseEv() #0 align 2 !dbg !4035 {
  ret void, !dbg !4036
}

; Function Attrs: nobuiltin
declare noalias i8* @_Znwm(i64) #2

; Function Attrs: inlinehint nounwind ssp uwtable
define linkonce_odr void @_ZN7testing8internal15TestFactoryImplI30HelloTest_testSumOfTestee_TestEC1Ev(%"class.testing::internal::TestFactoryImpl"*) unnamed_addr #3 align 2 !dbg !4037 {
  %2 = alloca %"class.testing::internal::TestFactoryImpl"*, align 8
  store %"class.testing::internal::TestFactoryImpl"* %0, %"class.testing::internal::TestFactoryImpl"** %2, align 8
  call void @llvm.dbg.declare(metadata %"class.testing::internal::TestFactoryImpl"** %2, metadata !4050, metadata !3978), !dbg !4052
  %3 = load %"class.testing::internal::TestFactoryImpl"*, %"class.testing::internal::TestFactoryImpl"** %2, align 8
  call void @_ZN7testing8internal15TestFactoryImplI30HelloTest_testSumOfTestee_TestEC2Ev(%"class.testing::internal::TestFactoryImpl"* %3), !dbg !4053
  ret void, !dbg !4053
}

; Function Attrs: inlinehint nounwind ssp uwtable
define linkonce_odr void @_ZN7testing8internal12CodeLocationD1Ev(%"struct.testing::internal::CodeLocation"*) unnamed_addr #3 align 2 !dbg !4054 {
  %2 = alloca %"struct.testing::internal::CodeLocation"*, align 8
  store %"struct.testing::internal::CodeLocation"* %0, %"struct.testing::internal::CodeLocation"** %2, align 8
  call void @llvm.dbg.declare(metadata %"struct.testing::internal::CodeLocation"** %2, metadata !4058, metadata !3978), !dbg !4059
  %3 = load %"struct.testing::internal::CodeLocation"*, %"struct.testing::internal::CodeLocation"** %2, align 8
  call void @_ZN7testing8internal12CodeLocationD2Ev(%"struct.testing::internal::CodeLocation"* %3) #10, !dbg !4060
  ret void, !dbg !4060
}

; Function Attrs: nounwind
declare void @_ZNSt3__112basic_stringIcNS_11char_traitsIcEENS_9allocatorIcEEED1Ev(%"class.std::__1::basic_string"*) unnamed_addr #4

; Function Attrs: nounwind ssp uwtable
define void @_ZN30HelloTest_testSumOfTestee_Test8TestBodyEv(%class.HelloTest_testSumOfTestee_Test*) unnamed_addr #0 align 2 !dbg !4061 {
  %2 = alloca %class.HelloTest_testSumOfTestee_Test*, align 8
  %3 = alloca %class.Testee, align 1
  %4 = alloca i32, align 4
  %5 = alloca %"class.testing::AssertionResult", align 8
  %6 = alloca i32, align 4
  %7 = alloca %"class.testing::internal::AssertHelper", align 8
  %8 = alloca %"class.testing::Message", align 8
  store %class.HelloTest_testSumOfTestee_Test* %0, %class.HelloTest_testSumOfTestee_Test** %2, align 8
  call void @llvm.dbg.declare(metadata %class.HelloTest_testSumOfTestee_Test** %2, metadata !4062, metadata !3978), !dbg !4064
  %9 = load %class.HelloTest_testSumOfTestee_Test*, %class.HelloTest_testSumOfTestee_Test** %2, align 8
  call void @llvm.dbg.declare(metadata %class.Testee* %3, metadata !4065, metadata !3978), !dbg !4073
  call void @llvm.dbg.declare(metadata i32* %4, metadata !4074, metadata !3978), !dbg !4075
  %10 = call i32 @_ZN6Testee3sumEii(%class.Testee* %3, i32 2, i32 3), !dbg !4076
  store i32 %10, i32* %4, align 4, !dbg !4075
  call void @llvm.dbg.declare(metadata %"class.testing::AssertionResult"* %5, metadata !4077, metadata !3978), !dbg !5101
  store i32 5, i32* %6, align 4, !dbg !5101
  call void @_ZN7testing8internal8EqHelperILb0EE7CompareIiiEENS_15AssertionResultEPKcS6_RKT_RKT0_(%"class.testing::AssertionResult"* sret %5, i8* getelementptr inbounds ([7 x i8], [7 x i8]* @.str.3, i32 0, i32 0), i8* getelementptr inbounds ([2 x i8], [2 x i8]* @.str.4, i32 0, i32 0), i32* dereferenceable(4) %4, i32* dereferenceable(4) %6), !dbg !5101
  %11 = call zeroext i1 @_ZNK7testing15AssertionResultcvbEv(%"class.testing::AssertionResult"* %5), !dbg !5101
  br i1 %11, label %12, label %13, !dbg !5102

; <label>:12:                                     ; preds = %1
  br label %15, !dbg !5102

; <label>:13:                                     ; preds = %1
  %14 = call i8* @_ZNK7testing15AssertionResult15failure_messageEv(%"class.testing::AssertionResult"* %5), !dbg !5101
  call void @_ZN7testing8internal12AssertHelperC1ENS_14TestPartResult4TypeEPKciS5_(%"class.testing::internal::AssertHelper"* %7, i32 1, i8* getelementptr inbounds ([11 x i8], [11 x i8]* @.str.2, i32 0, i32 0), i32 10, i8* %14), !dbg !5101
  call void @_ZN7testing7MessageC1Ev(%"class.testing::Message"* %8), !dbg !5101
  call void @_ZNK7testing8internal12AssertHelperaSERKNS_7MessageE(%"class.testing::internal::AssertHelper"* %7, %"class.testing::Message"* dereferenceable(8) %8), !dbg !5101
  call void @_ZN7testing7MessageD1Ev(%"class.testing::Message"* %8) #10, !dbg !5101
  call void @_ZN7testing8internal12AssertHelperD1Ev(%"class.testing::internal::AssertHelper"* %7) #10, !dbg !5101
  br label %15

; <label>:15:                                     ; preds = %13, %12
  call void @_ZN7testing15AssertionResultD1Ev(%"class.testing::AssertionResult"* %5) #10, !dbg !5102
  ret void, !dbg !5103
}

; Function Attrs: nounwind readnone
declare void @llvm.dbg.declare(metadata, metadata, metadata) #5

declare i32 @_ZN6Testee3sumEii(%class.Testee*, i32, i32) #1

; Function Attrs: nounwind ssp uwtable
define linkonce_odr void @_ZN7testing8internal8EqHelperILb0EE7CompareIiiEENS_15AssertionResultEPKcS6_RKT_RKT0_(%"class.testing::AssertionResult"* noalias sret, i8*, i8*, i32* dereferenceable(4), i32* dereferenceable(4)) #0 align 2 !dbg !5104 {
  %6 = alloca i8*, align 8
  %7 = alloca i8*, align 8
  %8 = alloca i32*, align 8
  %9 = alloca i32*, align 8
  store i8* %1, i8** %6, align 8
  call void @llvm.dbg.declare(metadata i8** %6, metadata !5119, metadata !3978), !dbg !5120
  store i8* %2, i8** %7, align 8
  call void @llvm.dbg.declare(metadata i8** %7, metadata !5121, metadata !3978), !dbg !5122
  store i32* %3, i32** %8, align 8
  call void @llvm.dbg.declare(metadata i32** %8, metadata !5123, metadata !3978), !dbg !5124
  store i32* %4, i32** %9, align 8
  call void @llvm.dbg.declare(metadata i32** %9, metadata !5125, metadata !3978), !dbg !5126
  %10 = load i8*, i8** %6, align 8, !dbg !5127
  %11 = load i8*, i8** %7, align 8, !dbg !5128
  %12 = load i32*, i32** %8, align 8, !dbg !5129
  %13 = load i32*, i32** %9, align 8, !dbg !5130
  call void @_ZN7testing8internal11CmpHelperEQIiiEENS_15AssertionResultEPKcS4_RKT_RKT0_(%"class.testing::AssertionResult"* sret %0, i8* %10, i8* %11, i32* dereferenceable(4) %12, i32* dereferenceable(4) %13), !dbg !5131
  ret void, !dbg !5132
}

; Function Attrs: nounwind ssp uwtable
define linkonce_odr zeroext i1 @_ZNK7testing15AssertionResultcvbEv(%"class.testing::AssertionResult"*) #0 align 2 !dbg !5133 {
  %2 = alloca %"class.testing::AssertionResult"*, align 8
  store %"class.testing::AssertionResult"* %0, %"class.testing::AssertionResult"** %2, align 8
  call void @llvm.dbg.declare(metadata %"class.testing::AssertionResult"** %2, metadata !5134, metadata !3978), !dbg !5136
  %3 = load %"class.testing::AssertionResult"*, %"class.testing::AssertionResult"** %2, align 8
  %4 = getelementptr inbounds %"class.testing::AssertionResult", %"class.testing::AssertionResult"* %3, i32 0, i32 0, !dbg !5137
  %5 = load i8, i8* %4, align 8, !dbg !5137
  %6 = trunc i8 %5 to i1, !dbg !5137
  ret i1 %6, !dbg !5138
}

; Function Attrs: nounwind ssp uwtable
define linkonce_odr i8* @_ZNK7testing15AssertionResult15failure_messageEv(%"class.testing::AssertionResult"*) #0 align 2 !dbg !5139 {
  %2 = alloca %"class.testing::AssertionResult"*, align 8
  store %"class.testing::AssertionResult"* %0, %"class.testing::AssertionResult"** %2, align 8
  call void @llvm.dbg.declare(metadata %"class.testing::AssertionResult"** %2, metadata !5140, metadata !3978), !dbg !5141
  %3 = load %"class.testing::AssertionResult"*, %"class.testing::AssertionResult"** %2, align 8
  %4 = call i8* @_ZNK7testing15AssertionResult7messageEv(%"class.testing::AssertionResult"* %3), !dbg !5142
  ret i8* %4, !dbg !5143
}

declare void @_ZN7testing8internal12AssertHelperC1ENS_14TestPartResult4TypeEPKciS5_(%"class.testing::internal::AssertHelper"*, i32, i8*, i32, i8*) unnamed_addr #1

declare void @_ZNK7testing8internal12AssertHelperaSERKNS_7MessageE(%"class.testing::internal::AssertHelper"*, %"class.testing::Message"* dereferenceable(8)) #1

declare void @_ZN7testing7MessageC1Ev(%"class.testing::Message"*) unnamed_addr #1

; Function Attrs: inlinehint nounwind ssp uwtable
define linkonce_odr void @_ZN7testing7MessageD1Ev(%"class.testing::Message"*) unnamed_addr #3 align 2 !dbg !5144 {
  %2 = alloca %"class.testing::Message"*, align 8
  store %"class.testing::Message"* %0, %"class.testing::Message"** %2, align 8
  call void @llvm.dbg.declare(metadata %"class.testing::Message"** %2, metadata !5146, metadata !3978), !dbg !5148
  %3 = load %"class.testing::Message"*, %"class.testing::Message"** %2, align 8
  call void @_ZN7testing7MessageD2Ev(%"class.testing::Message"* %3) #10, !dbg !5149
  ret void, !dbg !5149
}

; Function Attrs: nounwind
declare void @_ZN7testing8internal12AssertHelperD1Ev(%"class.testing::internal::AssertHelper"*) unnamed_addr #4

; Function Attrs: inlinehint nounwind ssp uwtable
define linkonce_odr void @_ZN7testing15AssertionResultD1Ev(%"class.testing::AssertionResult"*) unnamed_addr #3 align 2 !dbg !5150 {
  %2 = alloca %"class.testing::AssertionResult"*, align 8
  store %"class.testing::AssertionResult"* %0, %"class.testing::AssertionResult"** %2, align 8
  call void @llvm.dbg.declare(metadata %"class.testing::AssertionResult"** %2, metadata !5154, metadata !3978), !dbg !5156
  %3 = load %"class.testing::AssertionResult"*, %"class.testing::AssertionResult"** %2, align 8
  call void @_ZN7testing15AssertionResultD2Ev(%"class.testing::AssertionResult"* %3) #10, !dbg !5157
  ret void, !dbg !5157
}

; Function Attrs: inlinehint nounwind ssp uwtable
define linkonce_odr void @_ZN30HelloTest_testSumOfTestee_TestD1Ev(%class.HelloTest_testSumOfTestee_Test*) unnamed_addr #3 align 2 !dbg !5158 {
  %2 = alloca %class.HelloTest_testSumOfTestee_Test*, align 8
  store %class.HelloTest_testSumOfTestee_Test* %0, %class.HelloTest_testSumOfTestee_Test** %2, align 8
  call void @llvm.dbg.declare(metadata %class.HelloTest_testSumOfTestee_Test** %2, metadata !5160, metadata !3978), !dbg !5161
  %3 = load %class.HelloTest_testSumOfTestee_Test*, %class.HelloTest_testSumOfTestee_Test** %2, align 8
  call void @_ZN30HelloTest_testSumOfTestee_TestD2Ev(%class.HelloTest_testSumOfTestee_Test* %3) #10, !dbg !5162
  ret void, !dbg !5162
}

; Function Attrs: inlinehint nounwind ssp uwtable
define linkonce_odr void @_ZN30HelloTest_testSumOfTestee_TestD0Ev(%class.HelloTest_testSumOfTestee_Test*) unnamed_addr #3 align 2 !dbg !5163 {
  %2 = alloca %class.HelloTest_testSumOfTestee_Test*, align 8
  store %class.HelloTest_testSumOfTestee_Test* %0, %class.HelloTest_testSumOfTestee_Test** %2, align 8
  call void @llvm.dbg.declare(metadata %class.HelloTest_testSumOfTestee_Test** %2, metadata !5164, metadata !3978), !dbg !5165
  %3 = load %class.HelloTest_testSumOfTestee_Test*, %class.HelloTest_testSumOfTestee_Test** %2, align 8
  call void @_ZN30HelloTest_testSumOfTestee_TestD1Ev(%class.HelloTest_testSumOfTestee_Test* %3) #10, !dbg !5166
  %4 = bitcast %class.HelloTest_testSumOfTestee_Test* %3 to i8*, !dbg !5166
  call void @_ZdlPv(i8* %4) #12, !dbg !5166
  ret void, !dbg !5166
}

declare void @_ZN7testing4Test5SetUpEv(%"class.testing::Test"*) unnamed_addr #1

declare void @_ZN7testing4Test8TearDownEv(%"class.testing::Test"*) unnamed_addr #1

; Function Attrs: nounwind ssp uwtable
define linkonce_odr %"struct.testing::Test::Setup_should_be_spelled_SetUp"* @_ZN7testing4Test5SetupEv(%"class.testing::Test"*) unnamed_addr #0 align 2 !dbg !5167 {
  %2 = alloca %"class.testing::Test"*, align 8
  store %"class.testing::Test"* %0, %"class.testing::Test"** %2, align 8
  call void @llvm.dbg.declare(metadata %"class.testing::Test"** %2, metadata !5168, metadata !3978), !dbg !5169
  %3 = load %"class.testing::Test"*, %"class.testing::Test"** %2, align 8
  ret %"struct.testing::Test::Setup_should_be_spelled_SetUp"* null, !dbg !5170
}

; Function Attrs: nounwind ssp uwtable
define linkonce_odr void @_ZN7testing8internal12CodeLocationC2ERKNSt3__112basic_stringIcNS2_11char_traitsIcEENS2_9allocatorIcEEEEi(%"struct.testing::internal::CodeLocation"*, %"class.std::__1::basic_string"* dereferenceable(24), i32) unnamed_addr #0 align 2 !dbg !5171 {
  %4 = alloca %"struct.testing::internal::CodeLocation"*, align 8
  %5 = alloca %"class.std::__1::basic_string"*, align 8
  %6 = alloca i32, align 4
  store %"struct.testing::internal::CodeLocation"* %0, %"struct.testing::internal::CodeLocation"** %4, align 8
  call void @llvm.dbg.declare(metadata %"struct.testing::internal::CodeLocation"** %4, metadata !5172, metadata !3978), !dbg !5173
  store %"class.std::__1::basic_string"* %1, %"class.std::__1::basic_string"** %5, align 8
  call void @llvm.dbg.declare(metadata %"class.std::__1::basic_string"** %5, metadata !5174, metadata !3978), !dbg !5175
  store i32 %2, i32* %6, align 4
  call void @llvm.dbg.declare(metadata i32* %6, metadata !5176, metadata !3978), !dbg !5177
  %7 = load %"struct.testing::internal::CodeLocation"*, %"struct.testing::internal::CodeLocation"** %4, align 8
  %8 = getelementptr inbounds %"struct.testing::internal::CodeLocation", %"struct.testing::internal::CodeLocation"* %7, i32 0, i32 0, !dbg !5178
  %9 = load %"class.std::__1::basic_string"*, %"class.std::__1::basic_string"** %5, align 8, !dbg !5179
  call void @_ZNSt3__112basic_stringIcNS_11char_traitsIcEENS_9allocatorIcEEEC1ERKS5_(%"class.std::__1::basic_string"* %8, %"class.std::__1::basic_string"* dereferenceable(24) %9), !dbg !5178
  %10 = getelementptr inbounds %"struct.testing::internal::CodeLocation", %"struct.testing::internal::CodeLocation"* %7, i32 0, i32 1, !dbg !5180
  %11 = load i32, i32* %6, align 4, !dbg !5181
  store i32 %11, i32* %10, align 8, !dbg !5180
  ret void, !dbg !5182
}

declare void @_ZNSt3__112basic_stringIcNS_11char_traitsIcEENS_9allocatorIcEEEC1ERKS5_(%"class.std::__1::basic_string"*, %"class.std::__1::basic_string"* dereferenceable(24)) unnamed_addr #1

; Function Attrs: inlinehint nounwind ssp uwtable
define linkonce_odr void @_ZN7testing8internal15TestFactoryImplI30HelloTest_testSumOfTestee_TestEC2Ev(%"class.testing::internal::TestFactoryImpl"*) unnamed_addr #3 align 2 !dbg !5183 {
  %2 = alloca %"class.testing::internal::TestFactoryImpl"*, align 8
  store %"class.testing::internal::TestFactoryImpl"* %0, %"class.testing::internal::TestFactoryImpl"** %2, align 8
  call void @llvm.dbg.declare(metadata %"class.testing::internal::TestFactoryImpl"** %2, metadata !5184, metadata !3978), !dbg !5185
  %3 = load %"class.testing::internal::TestFactoryImpl"*, %"class.testing::internal::TestFactoryImpl"** %2, align 8
  %4 = bitcast %"class.testing::internal::TestFactoryImpl"* %3 to %"class.testing::internal::TestFactoryBase"*, !dbg !5186
  call void @_ZN7testing8internal15TestFactoryBaseC2Ev(%"class.testing::internal::TestFactoryBase"* %4), !dbg !5186
  %5 = bitcast %"class.testing::internal::TestFactoryImpl"* %3 to i32 (...)***, !dbg !5186
  store i32 (...)** bitcast (i8** getelementptr inbounds ([5 x i8*], [5 x i8*]* @_ZTVN7testing8internal15TestFactoryImplI30HelloTest_testSumOfTestee_TestEE, i32 0, i32 2) to i32 (...)**), i32 (...)*** %5, align 8, !dbg !5186
  ret void, !dbg !5186
}

; Function Attrs: nounwind ssp uwtable
define linkonce_odr void @_ZN7testing8internal15TestFactoryBaseC2Ev(%"class.testing::internal::TestFactoryBase"*) unnamed_addr #0 align 2 !dbg !5187 {
  %2 = alloca %"class.testing::internal::TestFactoryBase"*, align 8
  store %"class.testing::internal::TestFactoryBase"* %0, %"class.testing::internal::TestFactoryBase"** %2, align 8
  call void @llvm.dbg.declare(metadata %"class.testing::internal::TestFactoryBase"** %2, metadata !5188, metadata !3978), !dbg !5189
  %3 = load %"class.testing::internal::TestFactoryBase"*, %"class.testing::internal::TestFactoryBase"** %2, align 8
  %4 = bitcast %"class.testing::internal::TestFactoryBase"* %3 to i32 (...)***, !dbg !5190
  store i32 (...)** bitcast (i8** getelementptr inbounds ([5 x i8*], [5 x i8*]* @_ZTVN7testing8internal15TestFactoryBaseE, i32 0, i32 2) to i32 (...)**), i32 (...)*** %4, align 8, !dbg !5190
  ret void, !dbg !5191
}

; Function Attrs: inlinehint nounwind ssp uwtable
define linkonce_odr void @_ZN7testing8internal15TestFactoryImplI30HelloTest_testSumOfTestee_TestED1Ev(%"class.testing::internal::TestFactoryImpl"*) unnamed_addr #3 align 2 !dbg !5192 {
  %2 = alloca %"class.testing::internal::TestFactoryImpl"*, align 8
  store %"class.testing::internal::TestFactoryImpl"* %0, %"class.testing::internal::TestFactoryImpl"** %2, align 8
  call void @llvm.dbg.declare(metadata %"class.testing::internal::TestFactoryImpl"** %2, metadata !5194, metadata !3978), !dbg !5195
  %3 = load %"class.testing::internal::TestFactoryImpl"*, %"class.testing::internal::TestFactoryImpl"** %2, align 8
  call void @_ZN7testing8internal15TestFactoryImplI30HelloTest_testSumOfTestee_TestED2Ev(%"class.testing::internal::TestFactoryImpl"* %3) #10, !dbg !5196
  ret void, !dbg !5196
}

; Function Attrs: inlinehint nounwind ssp uwtable
define linkonce_odr void @_ZN7testing8internal15TestFactoryImplI30HelloTest_testSumOfTestee_TestED0Ev(%"class.testing::internal::TestFactoryImpl"*) unnamed_addr #3 align 2 !dbg !5197 {
  %2 = alloca %"class.testing::internal::TestFactoryImpl"*, align 8
  store %"class.testing::internal::TestFactoryImpl"* %0, %"class.testing::internal::TestFactoryImpl"** %2, align 8
  call void @llvm.dbg.declare(metadata %"class.testing::internal::TestFactoryImpl"** %2, metadata !5198, metadata !3978), !dbg !5199
  %3 = load %"class.testing::internal::TestFactoryImpl"*, %"class.testing::internal::TestFactoryImpl"** %2, align 8
  call void @_ZN7testing8internal15TestFactoryImplI30HelloTest_testSumOfTestee_TestED1Ev(%"class.testing::internal::TestFactoryImpl"* %3) #10, !dbg !5200
  %4 = bitcast %"class.testing::internal::TestFactoryImpl"* %3 to i8*, !dbg !5200
  call void @_ZdlPv(i8* %4) #12, !dbg !5200
  ret void, !dbg !5200
}

; Function Attrs: nounwind ssp uwtable
define linkonce_odr %"class.testing::Test"* @_ZN7testing8internal15TestFactoryImplI30HelloTest_testSumOfTestee_TestE10CreateTestEv(%"class.testing::internal::TestFactoryImpl"*) unnamed_addr #0 align 2 !dbg !5201 {
  %2 = alloca %"class.testing::internal::TestFactoryImpl"*, align 8
  store %"class.testing::internal::TestFactoryImpl"* %0, %"class.testing::internal::TestFactoryImpl"** %2, align 8
  call void @llvm.dbg.declare(metadata %"class.testing::internal::TestFactoryImpl"** %2, metadata !5202, metadata !3978), !dbg !5203
  %3 = load %"class.testing::internal::TestFactoryImpl"*, %"class.testing::internal::TestFactoryImpl"** %2, align 8
  %4 = call i8* @_Znwm(i64 16) #11, !dbg !5204
  %5 = bitcast i8* %4 to %class.HelloTest_testSumOfTestee_Test*, !dbg !5204
  call void @_ZN30HelloTest_testSumOfTestee_TestC1Ev(%class.HelloTest_testSumOfTestee_Test* %5), !dbg !5205
  %6 = bitcast %class.HelloTest_testSumOfTestee_Test* %5 to %"class.testing::Test"*, !dbg !5204
  ret %"class.testing::Test"* %6, !dbg !5206
}

; Function Attrs: nounwind ssp uwtable
define linkonce_odr void @_ZN7testing8internal15TestFactoryBaseD1Ev(%"class.testing::internal::TestFactoryBase"*) unnamed_addr #0 align 2 !dbg !5207 {
  %2 = alloca %"class.testing::internal::TestFactoryBase"*, align 8
  store %"class.testing::internal::TestFactoryBase"* %0, %"class.testing::internal::TestFactoryBase"** %2, align 8
  call void @llvm.dbg.declare(metadata %"class.testing::internal::TestFactoryBase"** %2, metadata !5208, metadata !3978), !dbg !5209
  %3 = load %"class.testing::internal::TestFactoryBase"*, %"class.testing::internal::TestFactoryBase"** %2, align 8
  call void @_ZN7testing8internal15TestFactoryBaseD2Ev(%"class.testing::internal::TestFactoryBase"* %3) #10, !dbg !5210
  ret void, !dbg !5211
}

; Function Attrs: nounwind ssp uwtable
define linkonce_odr void @_ZN7testing8internal15TestFactoryBaseD0Ev(%"class.testing::internal::TestFactoryBase"*) unnamed_addr #0 align 2 !dbg !5212 {
  %2 = alloca %"class.testing::internal::TestFactoryBase"*, align 8
  store %"class.testing::internal::TestFactoryBase"* %0, %"class.testing::internal::TestFactoryBase"** %2, align 8
  call void @llvm.dbg.declare(metadata %"class.testing::internal::TestFactoryBase"** %2, metadata !5213, metadata !3978), !dbg !5214
  %3 = load %"class.testing::internal::TestFactoryBase"*, %"class.testing::internal::TestFactoryBase"** %2, align 8
  call void @_ZN7testing8internal15TestFactoryBaseD1Ev(%"class.testing::internal::TestFactoryBase"* %3) #10, !dbg !5215
  %4 = bitcast %"class.testing::internal::TestFactoryBase"* %3 to i8*, !dbg !5215
  call void @_ZdlPv(i8* %4) #12, !dbg !5215
  ret void, !dbg !5216
}

declare void @__cxa_pure_virtual() unnamed_addr

; Function Attrs: nounwind ssp uwtable
define linkonce_odr void @_ZN7testing8internal15TestFactoryBaseD2Ev(%"class.testing::internal::TestFactoryBase"*) unnamed_addr #0 align 2 !dbg !5217 {
  %2 = alloca %"class.testing::internal::TestFactoryBase"*, align 8
  store %"class.testing::internal::TestFactoryBase"* %0, %"class.testing::internal::TestFactoryBase"** %2, align 8
  call void @llvm.dbg.declare(metadata %"class.testing::internal::TestFactoryBase"** %2, metadata !5218, metadata !3978), !dbg !5219
  %3 = load %"class.testing::internal::TestFactoryBase"*, %"class.testing::internal::TestFactoryBase"** %2, align 8
  ret void, !dbg !5220
}

; Function Attrs: nobuiltin nounwind
declare void @_ZdlPv(i8*) #6

; Function Attrs: inlinehint nounwind ssp uwtable
define linkonce_odr void @_ZN7testing8internal15TestFactoryImplI30HelloTest_testSumOfTestee_TestED2Ev(%"class.testing::internal::TestFactoryImpl"*) unnamed_addr #3 align 2 !dbg !5221 {
  %2 = alloca %"class.testing::internal::TestFactoryImpl"*, align 8
  store %"class.testing::internal::TestFactoryImpl"* %0, %"class.testing::internal::TestFactoryImpl"** %2, align 8
  call void @llvm.dbg.declare(metadata %"class.testing::internal::TestFactoryImpl"** %2, metadata !5222, metadata !3978), !dbg !5223
  %3 = load %"class.testing::internal::TestFactoryImpl"*, %"class.testing::internal::TestFactoryImpl"** %2, align 8
  %4 = bitcast %"class.testing::internal::TestFactoryImpl"* %3 to %"class.testing::internal::TestFactoryBase"*, !dbg !5224
  call void @_ZN7testing8internal15TestFactoryBaseD2Ev(%"class.testing::internal::TestFactoryBase"* %4) #10, !dbg !5224
  ret void, !dbg !5226
}

; Function Attrs: nounwind ssp uwtable
define linkonce_odr void @_ZN30HelloTest_testSumOfTestee_TestC1Ev(%class.HelloTest_testSumOfTestee_Test*) unnamed_addr #0 align 2 !dbg !5227 {
  %2 = alloca %class.HelloTest_testSumOfTestee_Test*, align 8
  store %class.HelloTest_testSumOfTestee_Test* %0, %class.HelloTest_testSumOfTestee_Test** %2, align 8
  call void @llvm.dbg.declare(metadata %class.HelloTest_testSumOfTestee_Test** %2, metadata !5228, metadata !3978), !dbg !5229
  %3 = load %class.HelloTest_testSumOfTestee_Test*, %class.HelloTest_testSumOfTestee_Test** %2, align 8
  call void @_ZN30HelloTest_testSumOfTestee_TestC2Ev(%class.HelloTest_testSumOfTestee_Test* %3), !dbg !5230
  ret void, !dbg !5230
}

; Function Attrs: nounwind ssp uwtable
define linkonce_odr void @_ZN30HelloTest_testSumOfTestee_TestC2Ev(%class.HelloTest_testSumOfTestee_Test*) unnamed_addr #0 align 2 !dbg !5231 {
  %2 = alloca %class.HelloTest_testSumOfTestee_Test*, align 8
  store %class.HelloTest_testSumOfTestee_Test* %0, %class.HelloTest_testSumOfTestee_Test** %2, align 8
  call void @llvm.dbg.declare(metadata %class.HelloTest_testSumOfTestee_Test** %2, metadata !5232, metadata !3978), !dbg !5233
  %3 = load %class.HelloTest_testSumOfTestee_Test*, %class.HelloTest_testSumOfTestee_Test** %2, align 8
  %4 = bitcast %class.HelloTest_testSumOfTestee_Test* %3 to %"class.testing::Test"*, !dbg !5234
  call void @_ZN7testing4TestC2Ev(%"class.testing::Test"* %4), !dbg !5234
  %5 = bitcast %class.HelloTest_testSumOfTestee_Test* %3 to i32 (...)***, !dbg !5234
  store i32 (...)** bitcast (i8** getelementptr inbounds ([8 x i8*], [8 x i8*]* @_ZTV30HelloTest_testSumOfTestee_Test, i32 0, i32 2) to i32 (...)**), i32 (...)*** %5, align 8, !dbg !5234
  ret void, !dbg !5234
}

declare void @_ZN7testing4TestC2Ev(%"class.testing::Test"*) unnamed_addr #1

; Function Attrs: inlinehint nounwind ssp uwtable
define linkonce_odr void @_ZN7testing8internal12CodeLocationD2Ev(%"struct.testing::internal::CodeLocation"*) unnamed_addr #3 align 2 !dbg !5235 {
  %2 = alloca %"struct.testing::internal::CodeLocation"*, align 8
  store %"struct.testing::internal::CodeLocation"* %0, %"struct.testing::internal::CodeLocation"** %2, align 8
  call void @llvm.dbg.declare(metadata %"struct.testing::internal::CodeLocation"** %2, metadata !5236, metadata !3978), !dbg !5237
  %3 = load %"struct.testing::internal::CodeLocation"*, %"struct.testing::internal::CodeLocation"** %2, align 8
  %4 = getelementptr inbounds %"struct.testing::internal::CodeLocation", %"struct.testing::internal::CodeLocation"* %3, i32 0, i32 0, !dbg !5238
  call void @_ZNSt3__112basic_stringIcNS_11char_traitsIcEENS_9allocatorIcEEED1Ev(%"class.std::__1::basic_string"* %4) #10, !dbg !5238
  ret void, !dbg !5240
}

; Function Attrs: nounwind ssp uwtable
define linkonce_odr i8* @_ZNK7testing15AssertionResult7messageEv(%"class.testing::AssertionResult"*) #0 align 2 !dbg !5241 {
  %2 = alloca i8*, align 8
  call void @llvm.dbg.declare(metadata i8** %2, metadata !5242, metadata !3978), !dbg !5248
  %3 = alloca %"class.std::__1::__libcpp_compressed_pair_imp"*, align 8
  call void @llvm.dbg.declare(metadata %"class.std::__1::__libcpp_compressed_pair_imp"** %3, metadata !5254, metadata !3978), !dbg !5257
  %4 = alloca %"class.std::__1::__compressed_pair"*, align 8
  call void @llvm.dbg.declare(metadata %"class.std::__1::__compressed_pair"** %4, metadata !5265, metadata !3978), !dbg !5267
  %5 = alloca %"class.std::__1::basic_string"*, align 8
  call void @llvm.dbg.declare(metadata %"class.std::__1::basic_string"** %5, metadata !5268, metadata !3978), !dbg !5269
  %6 = alloca i8*, align 8
  call void @llvm.dbg.declare(metadata i8** %6, metadata !5270, metadata !3978), !dbg !5274
  %7 = alloca i8*, align 8
  call void @llvm.dbg.declare(metadata i8** %7, metadata !5295, metadata !3978), !dbg !5296
  %8 = alloca %"class.std::__1::__libcpp_compressed_pair_imp"*, align 8
  call void @llvm.dbg.declare(metadata %"class.std::__1::__libcpp_compressed_pair_imp"** %8, metadata !5254, metadata !3978), !dbg !5297
  %9 = alloca %"class.std::__1::__compressed_pair"*, align 8
  call void @llvm.dbg.declare(metadata %"class.std::__1::__compressed_pair"** %9, metadata !5265, metadata !3978), !dbg !5300
  %10 = alloca %"class.std::__1::basic_string"*, align 8
  call void @llvm.dbg.declare(metadata %"class.std::__1::basic_string"** %10, metadata !5301, metadata !3978), !dbg !5302
  %11 = alloca %"class.std::__1::__libcpp_compressed_pair_imp"*, align 8
  call void @llvm.dbg.declare(metadata %"class.std::__1::__libcpp_compressed_pair_imp"** %11, metadata !5254, metadata !3978), !dbg !5303
  %12 = alloca %"class.std::__1::__compressed_pair"*, align 8
  call void @llvm.dbg.declare(metadata %"class.std::__1::__compressed_pair"** %12, metadata !5265, metadata !3978), !dbg !5308
  %13 = alloca %"class.std::__1::basic_string"*, align 8
  call void @llvm.dbg.declare(metadata %"class.std::__1::basic_string"** %13, metadata !5309, metadata !3978), !dbg !5310
  %14 = alloca %"class.std::__1::basic_string"*, align 8
  call void @llvm.dbg.declare(metadata %"class.std::__1::basic_string"** %14, metadata !5311, metadata !3978), !dbg !5312
  %15 = alloca %"class.std::__1::basic_string"*, align 8
  call void @llvm.dbg.declare(metadata %"class.std::__1::basic_string"** %15, metadata !5313, metadata !3978), !dbg !5314
  %16 = alloca %"class.std::__1::basic_string"*, align 8
  call void @llvm.dbg.declare(metadata %"class.std::__1::basic_string"** %16, metadata !5315, metadata !3978), !dbg !5316
  %17 = alloca %"class.testing::AssertionResult"*, align 8
  store %"class.testing::AssertionResult"* %0, %"class.testing::AssertionResult"** %17, align 8
  call void @llvm.dbg.declare(metadata %"class.testing::AssertionResult"** %17, metadata !5317, metadata !3978), !dbg !5318
  %18 = load %"class.testing::AssertionResult"*, %"class.testing::AssertionResult"** %17, align 8
  %19 = getelementptr inbounds %"class.testing::AssertionResult", %"class.testing::AssertionResult"* %18, i32 0, i32 1, !dbg !5319
  %20 = call %"class.std::__1::basic_string"* @_ZNK7testing8internal10scoped_ptrINSt3__112basic_stringIcNS2_11char_traitsIcEENS2_9allocatorIcEEEEE3getEv(%"class.testing::internal::scoped_ptr.12"* %19), !dbg !5320
  %21 = icmp ne %"class.std::__1::basic_string"* %20, null, !dbg !5321
  br i1 %21, label %22, label %69, !dbg !5319

; <label>:22:                                     ; preds = %1
  %23 = getelementptr inbounds %"class.testing::AssertionResult", %"class.testing::AssertionResult"* %18, i32 0, i32 1, !dbg !5322
  %24 = call %"class.std::__1::basic_string"* @_ZNK7testing8internal10scoped_ptrINSt3__112basic_stringIcNS2_11char_traitsIcEENS2_9allocatorIcEEEEEptEv(%"class.testing::internal::scoped_ptr.12"* %23), !dbg !5322
  store %"class.std::__1::basic_string"* %24, %"class.std::__1::basic_string"** %16, align 8, !dbg !5323
  %25 = load %"class.std::__1::basic_string"*, %"class.std::__1::basic_string"** %16, align 8, !dbg !5323
  store %"class.std::__1::basic_string"* %25, %"class.std::__1::basic_string"** %15, align 8, !dbg !5324
  %26 = load %"class.std::__1::basic_string"*, %"class.std::__1::basic_string"** %15, align 8, !dbg !5324
  store %"class.std::__1::basic_string"* %26, %"class.std::__1::basic_string"** %14, align 8, !dbg !5325
  %27 = load %"class.std::__1::basic_string"*, %"class.std::__1::basic_string"** %14, align 8, !dbg !5325
  store %"class.std::__1::basic_string"* %27, %"class.std::__1::basic_string"** %13, align 8, !dbg !5326
  %28 = load %"class.std::__1::basic_string"*, %"class.std::__1::basic_string"** %13, align 8, !dbg !5326
  %29 = getelementptr inbounds %"class.std::__1::basic_string", %"class.std::__1::basic_string"* %28, i32 0, i32 0, !dbg !5327
  store %"class.std::__1::__compressed_pair"* %29, %"class.std::__1::__compressed_pair"** %12, align 8, !dbg !5328
  %30 = load %"class.std::__1::__compressed_pair"*, %"class.std::__1::__compressed_pair"** %12, align 8, !dbg !5328
  %31 = bitcast %"class.std::__1::__compressed_pair"* %30 to %"class.std::__1::__libcpp_compressed_pair_imp"*, !dbg !5329
  store %"class.std::__1::__libcpp_compressed_pair_imp"* %31, %"class.std::__1::__libcpp_compressed_pair_imp"** %11, align 8, !dbg !5329
  %32 = load %"class.std::__1::__libcpp_compressed_pair_imp"*, %"class.std::__1::__libcpp_compressed_pair_imp"** %11, align 8, !dbg !5329
  %33 = getelementptr inbounds %"class.std::__1::__libcpp_compressed_pair_imp", %"class.std::__1::__libcpp_compressed_pair_imp"* %32, i32 0, i32 0, !dbg !5330
  %34 = getelementptr inbounds %"struct.std::__1::basic_string<char, std::__1::char_traits<char>, std::__1::allocator<char> >::__rep", %"struct.std::__1::basic_string<char, std::__1::char_traits<char>, std::__1::allocator<char> >::__rep"* %33, i32 0, i32 0, !dbg !5331
  %35 = bitcast %union.anon* %34 to %"struct.std::__1::basic_string<char, std::__1::char_traits<char>, std::__1::allocator<char> >::__short"*, !dbg !5331
  %36 = getelementptr inbounds %"struct.std::__1::basic_string<char, std::__1::char_traits<char>, std::__1::allocator<char> >::__short", %"struct.std::__1::basic_string<char, std::__1::char_traits<char>, std::__1::allocator<char> >::__short"* %35, i32 0, i32 0, !dbg !5332
  %37 = bitcast %union.anon.0* %36 to i8*, !dbg !5332
  %38 = load i8, i8* %37, align 8, !dbg !5332
  %39 = zext i8 %38 to i32, !dbg !5327
  %40 = and i32 %39, 1, !dbg !5333
  %41 = icmp ne i32 %40, 0, !dbg !5327
  br i1 %41, label %42, label %53, !dbg !5326

; <label>:42:                                     ; preds = %22
  store %"class.std::__1::basic_string"* %27, %"class.std::__1::basic_string"** %5, align 8, !dbg !5334
  %43 = load %"class.std::__1::basic_string"*, %"class.std::__1::basic_string"** %5, align 8, !dbg !5334
  %44 = getelementptr inbounds %"class.std::__1::basic_string", %"class.std::__1::basic_string"* %43, i32 0, i32 0, !dbg !5335
  store %"class.std::__1::__compressed_pair"* %44, %"class.std::__1::__compressed_pair"** %4, align 8, !dbg !5336
  %45 = load %"class.std::__1::__compressed_pair"*, %"class.std::__1::__compressed_pair"** %4, align 8, !dbg !5336
  %46 = bitcast %"class.std::__1::__compressed_pair"* %45 to %"class.std::__1::__libcpp_compressed_pair_imp"*, !dbg !5337
  store %"class.std::__1::__libcpp_compressed_pair_imp"* %46, %"class.std::__1::__libcpp_compressed_pair_imp"** %3, align 8, !dbg !5337
  %47 = load %"class.std::__1::__libcpp_compressed_pair_imp"*, %"class.std::__1::__libcpp_compressed_pair_imp"** %3, align 8, !dbg !5337
  %48 = getelementptr inbounds %"class.std::__1::__libcpp_compressed_pair_imp", %"class.std::__1::__libcpp_compressed_pair_imp"* %47, i32 0, i32 0, !dbg !5338
  %49 = getelementptr inbounds %"struct.std::__1::basic_string<char, std::__1::char_traits<char>, std::__1::allocator<char> >::__rep", %"struct.std::__1::basic_string<char, std::__1::char_traits<char>, std::__1::allocator<char> >::__rep"* %48, i32 0, i32 0, !dbg !5339
  %50 = bitcast %union.anon* %49 to %"struct.std::__1::basic_string<char, std::__1::char_traits<char>, std::__1::allocator<char> >::__long"*, !dbg !5339
  %51 = getelementptr inbounds %"struct.std::__1::basic_string<char, std::__1::char_traits<char>, std::__1::allocator<char> >::__long", %"struct.std::__1::basic_string<char, std::__1::char_traits<char>, std::__1::allocator<char> >::__long"* %50, i32 0, i32 2, !dbg !5340
  %52 = load i8*, i8** %51, align 8, !dbg !5340
  br label %66, !dbg !5326

; <label>:53:                                     ; preds = %22
  store %"class.std::__1::basic_string"* %27, %"class.std::__1::basic_string"** %10, align 8, !dbg !5341
  %54 = load %"class.std::__1::basic_string"*, %"class.std::__1::basic_string"** %10, align 8, !dbg !5341
  %55 = getelementptr inbounds %"class.std::__1::basic_string", %"class.std::__1::basic_string"* %54, i32 0, i32 0, !dbg !5342
  store %"class.std::__1::__compressed_pair"* %55, %"class.std::__1::__compressed_pair"** %9, align 8, !dbg !5343
  %56 = load %"class.std::__1::__compressed_pair"*, %"class.std::__1::__compressed_pair"** %9, align 8, !dbg !5343
  %57 = bitcast %"class.std::__1::__compressed_pair"* %56 to %"class.std::__1::__libcpp_compressed_pair_imp"*, !dbg !5344
  store %"class.std::__1::__libcpp_compressed_pair_imp"* %57, %"class.std::__1::__libcpp_compressed_pair_imp"** %8, align 8, !dbg !5344
  %58 = load %"class.std::__1::__libcpp_compressed_pair_imp"*, %"class.std::__1::__libcpp_compressed_pair_imp"** %8, align 8, !dbg !5344
  %59 = getelementptr inbounds %"class.std::__1::__libcpp_compressed_pair_imp", %"class.std::__1::__libcpp_compressed_pair_imp"* %58, i32 0, i32 0, !dbg !5345
  %60 = getelementptr inbounds %"struct.std::__1::basic_string<char, std::__1::char_traits<char>, std::__1::allocator<char> >::__rep", %"struct.std::__1::basic_string<char, std::__1::char_traits<char>, std::__1::allocator<char> >::__rep"* %59, i32 0, i32 0, !dbg !5346
  %61 = bitcast %union.anon* %60 to %"struct.std::__1::basic_string<char, std::__1::char_traits<char>, std::__1::allocator<char> >::__short"*, !dbg !5346
  %62 = getelementptr inbounds %"struct.std::__1::basic_string<char, std::__1::char_traits<char>, std::__1::allocator<char> >::__short", %"struct.std::__1::basic_string<char, std::__1::char_traits<char>, std::__1::allocator<char> >::__short"* %61, i32 0, i32 1, !dbg !5347
  %63 = getelementptr inbounds [23 x i8], [23 x i8]* %62, i64 0, i64 0, !dbg !5342
  store i8* %63, i8** %7, align 8, !dbg !5348
  %64 = load i8*, i8** %7, align 8, !dbg !5349
  store i8* %64, i8** %6, align 8, !dbg !5350
  %65 = load i8*, i8** %6, align 8, !dbg !5351
  br label %66, !dbg !5326

; <label>:66:                                     ; preds = %42, %53
  %67 = phi i8* [ %52, %42 ], [ %65, %53 ], !dbg !5326
  store i8* %67, i8** %2, align 8, !dbg !5352
  %68 = load i8*, i8** %2, align 8, !dbg !5353
  br label %70, !dbg !5319

; <label>:69:                                     ; preds = %1
  br label %70, !dbg !5319

; <label>:70:                                     ; preds = %69, %66
  %71 = phi i8* [ %68, %66 ], [ getelementptr inbounds ([1 x i8], [1 x i8]* @.str.5, i32 0, i32 0), %69 ], !dbg !5319
  ret i8* %71, !dbg !5354
}

; Function Attrs: nounwind ssp uwtable
define linkonce_odr %"class.std::__1::basic_string"* @_ZNK7testing8internal10scoped_ptrINSt3__112basic_stringIcNS2_11char_traitsIcEENS2_9allocatorIcEEEEE3getEv(%"class.testing::internal::scoped_ptr.12"*) #0 align 2 !dbg !5355 {
  %2 = alloca %"class.testing::internal::scoped_ptr.12"*, align 8
  store %"class.testing::internal::scoped_ptr.12"* %0, %"class.testing::internal::scoped_ptr.12"** %2, align 8
  call void @llvm.dbg.declare(metadata %"class.testing::internal::scoped_ptr.12"** %2, metadata !5356, metadata !3978), !dbg !5358
  %3 = load %"class.testing::internal::scoped_ptr.12"*, %"class.testing::internal::scoped_ptr.12"** %2, align 8
  %4 = getelementptr inbounds %"class.testing::internal::scoped_ptr.12", %"class.testing::internal::scoped_ptr.12"* %3, i32 0, i32 0, !dbg !5359
  %5 = load %"class.std::__1::basic_string"*, %"class.std::__1::basic_string"** %4, align 8, !dbg !5359
  ret %"class.std::__1::basic_string"* %5, !dbg !5360
}

; Function Attrs: nounwind ssp uwtable
define linkonce_odr %"class.std::__1::basic_string"* @_ZNK7testing8internal10scoped_ptrINSt3__112basic_stringIcNS2_11char_traitsIcEENS2_9allocatorIcEEEEEptEv(%"class.testing::internal::scoped_ptr.12"*) #0 align 2 !dbg !5361 {
  %2 = alloca %"class.testing::internal::scoped_ptr.12"*, align 8
  store %"class.testing::internal::scoped_ptr.12"* %0, %"class.testing::internal::scoped_ptr.12"** %2, align 8
  call void @llvm.dbg.declare(metadata %"class.testing::internal::scoped_ptr.12"** %2, metadata !5362, metadata !3978), !dbg !5363
  %3 = load %"class.testing::internal::scoped_ptr.12"*, %"class.testing::internal::scoped_ptr.12"** %2, align 8
  %4 = getelementptr inbounds %"class.testing::internal::scoped_ptr.12", %"class.testing::internal::scoped_ptr.12"* %3, i32 0, i32 0, !dbg !5364
  %5 = load %"class.std::__1::basic_string"*, %"class.std::__1::basic_string"** %4, align 8, !dbg !5364
  ret %"class.std::__1::basic_string"* %5, !dbg !5365
}

; Function Attrs: inlinehint nounwind ssp uwtable
define linkonce_odr void @_ZN7testing7MessageD2Ev(%"class.testing::Message"*) unnamed_addr #3 align 2 !dbg !5366 {
  %2 = alloca %"class.testing::Message"*, align 8
  store %"class.testing::Message"* %0, %"class.testing::Message"** %2, align 8
  call void @llvm.dbg.declare(metadata %"class.testing::Message"** %2, metadata !5367, metadata !3978), !dbg !5368
  %3 = load %"class.testing::Message"*, %"class.testing::Message"** %2, align 8
  %4 = getelementptr inbounds %"class.testing::Message", %"class.testing::Message"* %3, i32 0, i32 0, !dbg !5369
  call void @_ZN7testing8internal10scoped_ptrINSt3__118basic_stringstreamIcNS2_11char_traitsIcEENS2_9allocatorIcEEEEED1Ev(%"class.testing::internal::scoped_ptr.13"* %4) #10, !dbg !5369
  ret void, !dbg !5371
}

; Function Attrs: nounwind ssp uwtable
define linkonce_odr void @_ZN7testing8internal10scoped_ptrINSt3__118basic_stringstreamIcNS2_11char_traitsIcEENS2_9allocatorIcEEEEED1Ev(%"class.testing::internal::scoped_ptr.13"*) unnamed_addr #0 align 2 !dbg !5372 {
  %2 = alloca %"class.testing::internal::scoped_ptr.13"*, align 8
  store %"class.testing::internal::scoped_ptr.13"* %0, %"class.testing::internal::scoped_ptr.13"** %2, align 8
  call void @llvm.dbg.declare(metadata %"class.testing::internal::scoped_ptr.13"** %2, metadata !5373, metadata !3978), !dbg !5375
  %3 = load %"class.testing::internal::scoped_ptr.13"*, %"class.testing::internal::scoped_ptr.13"** %2, align 8
  call void @_ZN7testing8internal10scoped_ptrINSt3__118basic_stringstreamIcNS2_11char_traitsIcEENS2_9allocatorIcEEEEED2Ev(%"class.testing::internal::scoped_ptr.13"* %3) #10, !dbg !5376
  ret void, !dbg !5377
}

; Function Attrs: nounwind ssp uwtable
define linkonce_odr void @_ZN7testing8internal10scoped_ptrINSt3__118basic_stringstreamIcNS2_11char_traitsIcEENS2_9allocatorIcEEEEED2Ev(%"class.testing::internal::scoped_ptr.13"*) unnamed_addr #0 align 2 !dbg !5378 {
  %2 = alloca %"class.testing::internal::scoped_ptr.13"*, align 8
  store %"class.testing::internal::scoped_ptr.13"* %0, %"class.testing::internal::scoped_ptr.13"** %2, align 8
  call void @llvm.dbg.declare(metadata %"class.testing::internal::scoped_ptr.13"** %2, metadata !5379, metadata !3978), !dbg !5380
  %3 = load %"class.testing::internal::scoped_ptr.13"*, %"class.testing::internal::scoped_ptr.13"** %2, align 8
  call void @_ZN7testing8internal10scoped_ptrINSt3__118basic_stringstreamIcNS2_11char_traitsIcEENS2_9allocatorIcEEEEE5resetEPS8_(%"class.testing::internal::scoped_ptr.13"* %3, %"class.std::__1::basic_stringstream"* null), !dbg !5381
  ret void, !dbg !5383
}

; Function Attrs: nounwind ssp uwtable
define linkonce_odr void @_ZN7testing8internal10scoped_ptrINSt3__118basic_stringstreamIcNS2_11char_traitsIcEENS2_9allocatorIcEEEEE5resetEPS8_(%"class.testing::internal::scoped_ptr.13"*, %"class.std::__1::basic_stringstream"*) #0 align 2 !dbg !5384 {
  %3 = alloca %"class.testing::internal::scoped_ptr.13"*, align 8
  %4 = alloca %"class.std::__1::basic_stringstream"*, align 8
  store %"class.testing::internal::scoped_ptr.13"* %0, %"class.testing::internal::scoped_ptr.13"** %3, align 8
  call void @llvm.dbg.declare(metadata %"class.testing::internal::scoped_ptr.13"** %3, metadata !5385, metadata !3978), !dbg !5386
  store %"class.std::__1::basic_stringstream"* %1, %"class.std::__1::basic_stringstream"** %4, align 8
  call void @llvm.dbg.declare(metadata %"class.std::__1::basic_stringstream"** %4, metadata !5387, metadata !3978), !dbg !5388
  %5 = load %"class.testing::internal::scoped_ptr.13"*, %"class.testing::internal::scoped_ptr.13"** %3, align 8
  %6 = load %"class.std::__1::basic_stringstream"*, %"class.std::__1::basic_stringstream"** %4, align 8, !dbg !5389
  %7 = getelementptr inbounds %"class.testing::internal::scoped_ptr.13", %"class.testing::internal::scoped_ptr.13"* %5, i32 0, i32 0, !dbg !5391
  %8 = load %"class.std::__1::basic_stringstream"*, %"class.std::__1::basic_stringstream"** %7, align 8, !dbg !5391
  %9 = icmp ne %"class.std::__1::basic_stringstream"* %6, %8, !dbg !5392
  br i1 %9, label %10, label %25, !dbg !5393

; <label>:10:                                     ; preds = %2
  %11 = call zeroext i1 @_ZN7testing8internal6IsTrueEb(i1 zeroext true), !dbg !5394
  br i1 %11, label %12, label %22, !dbg !5397

; <label>:12:                                     ; preds = %10
  %13 = getelementptr inbounds %"class.testing::internal::scoped_ptr.13", %"class.testing::internal::scoped_ptr.13"* %5, i32 0, i32 0, !dbg !5398
  %14 = load %"class.std::__1::basic_stringstream"*, %"class.std::__1::basic_stringstream"** %13, align 8, !dbg !5398
  %15 = icmp eq %"class.std::__1::basic_stringstream"* %14, null, !dbg !5400
  br i1 %15, label %21, label %16, !dbg !5400

; <label>:16:                                     ; preds = %12
  %17 = bitcast %"class.std::__1::basic_stringstream"* %14 to void (%"class.std::__1::basic_stringstream"*)***, !dbg !5400
  %18 = load void (%"class.std::__1::basic_stringstream"*)**, void (%"class.std::__1::basic_stringstream"*)*** %17, align 8, !dbg !5400
  %19 = getelementptr inbounds void (%"class.std::__1::basic_stringstream"*)*, void (%"class.std::__1::basic_stringstream"*)** %18, i64 1, !dbg !5400
  %20 = load void (%"class.std::__1::basic_stringstream"*)*, void (%"class.std::__1::basic_stringstream"*)** %19, align 8, !dbg !5400
  call void %20(%"class.std::__1::basic_stringstream"* %14) #10, !dbg !5400
  br label %21, !dbg !5400

; <label>:21:                                     ; preds = %16, %12
  br label %22, !dbg !5401

; <label>:22:                                     ; preds = %21, %10
  %23 = load %"class.std::__1::basic_stringstream"*, %"class.std::__1::basic_stringstream"** %4, align 8, !dbg !5402
  %24 = getelementptr inbounds %"class.testing::internal::scoped_ptr.13", %"class.testing::internal::scoped_ptr.13"* %5, i32 0, i32 0, !dbg !5403
  store %"class.std::__1::basic_stringstream"* %23, %"class.std::__1::basic_stringstream"** %24, align 8, !dbg !5404
  br label %25, !dbg !5405

; <label>:25:                                     ; preds = %22, %2
  ret void, !dbg !5406
}

declare zeroext i1 @_ZN7testing8internal6IsTrueEb(i1 zeroext) #1

; Function Attrs: inlinehint nounwind ssp uwtable
define linkonce_odr void @_ZN7testing15AssertionResultD2Ev(%"class.testing::AssertionResult"*) unnamed_addr #3 align 2 !dbg !5407 {
  %2 = alloca %"class.testing::AssertionResult"*, align 8
  store %"class.testing::AssertionResult"* %0, %"class.testing::AssertionResult"** %2, align 8
  call void @llvm.dbg.declare(metadata %"class.testing::AssertionResult"** %2, metadata !5408, metadata !3978), !dbg !5409
  %3 = load %"class.testing::AssertionResult"*, %"class.testing::AssertionResult"** %2, align 8
  %4 = getelementptr inbounds %"class.testing::AssertionResult", %"class.testing::AssertionResult"* %3, i32 0, i32 1, !dbg !5410
  call void @_ZN7testing8internal10scoped_ptrINSt3__112basic_stringIcNS2_11char_traitsIcEENS2_9allocatorIcEEEEED1Ev(%"class.testing::internal::scoped_ptr.12"* %4) #10, !dbg !5410
  ret void, !dbg !5412
}

; Function Attrs: nounwind ssp uwtable
define linkonce_odr void @_ZN7testing8internal10scoped_ptrINSt3__112basic_stringIcNS2_11char_traitsIcEENS2_9allocatorIcEEEEED1Ev(%"class.testing::internal::scoped_ptr.12"*) unnamed_addr #0 align 2 !dbg !5413 {
  %2 = alloca %"class.testing::internal::scoped_ptr.12"*, align 8
  store %"class.testing::internal::scoped_ptr.12"* %0, %"class.testing::internal::scoped_ptr.12"** %2, align 8
  call void @llvm.dbg.declare(metadata %"class.testing::internal::scoped_ptr.12"** %2, metadata !5414, metadata !3978), !dbg !5416
  %3 = load %"class.testing::internal::scoped_ptr.12"*, %"class.testing::internal::scoped_ptr.12"** %2, align 8
  call void @_ZN7testing8internal10scoped_ptrINSt3__112basic_stringIcNS2_11char_traitsIcEENS2_9allocatorIcEEEEED2Ev(%"class.testing::internal::scoped_ptr.12"* %3) #10, !dbg !5417
  ret void, !dbg !5418
}

; Function Attrs: nounwind ssp uwtable
define linkonce_odr void @_ZN7testing8internal10scoped_ptrINSt3__112basic_stringIcNS2_11char_traitsIcEENS2_9allocatorIcEEEEED2Ev(%"class.testing::internal::scoped_ptr.12"*) unnamed_addr #0 align 2 !dbg !5419 {
  %2 = alloca %"class.testing::internal::scoped_ptr.12"*, align 8
  store %"class.testing::internal::scoped_ptr.12"* %0, %"class.testing::internal::scoped_ptr.12"** %2, align 8
  call void @llvm.dbg.declare(metadata %"class.testing::internal::scoped_ptr.12"** %2, metadata !5420, metadata !3978), !dbg !5421
  %3 = load %"class.testing::internal::scoped_ptr.12"*, %"class.testing::internal::scoped_ptr.12"** %2, align 8
  call void @_ZN7testing8internal10scoped_ptrINSt3__112basic_stringIcNS2_11char_traitsIcEENS2_9allocatorIcEEEEE5resetEPS8_(%"class.testing::internal::scoped_ptr.12"* %3, %"class.std::__1::basic_string"* null), !dbg !5422
  ret void, !dbg !5424
}

; Function Attrs: nounwind ssp uwtable
define linkonce_odr void @_ZN7testing8internal10scoped_ptrINSt3__112basic_stringIcNS2_11char_traitsIcEENS2_9allocatorIcEEEEE5resetEPS8_(%"class.testing::internal::scoped_ptr.12"*, %"class.std::__1::basic_string"*) #0 align 2 !dbg !5425 {
  %3 = alloca %"class.testing::internal::scoped_ptr.12"*, align 8
  %4 = alloca %"class.std::__1::basic_string"*, align 8
  store %"class.testing::internal::scoped_ptr.12"* %0, %"class.testing::internal::scoped_ptr.12"** %3, align 8
  call void @llvm.dbg.declare(metadata %"class.testing::internal::scoped_ptr.12"** %3, metadata !5426, metadata !3978), !dbg !5427
  store %"class.std::__1::basic_string"* %1, %"class.std::__1::basic_string"** %4, align 8
  call void @llvm.dbg.declare(metadata %"class.std::__1::basic_string"** %4, metadata !5428, metadata !3978), !dbg !5429
  %5 = load %"class.testing::internal::scoped_ptr.12"*, %"class.testing::internal::scoped_ptr.12"** %3, align 8
  %6 = load %"class.std::__1::basic_string"*, %"class.std::__1::basic_string"** %4, align 8, !dbg !5430
  %7 = getelementptr inbounds %"class.testing::internal::scoped_ptr.12", %"class.testing::internal::scoped_ptr.12"* %5, i32 0, i32 0, !dbg !5432
  %8 = load %"class.std::__1::basic_string"*, %"class.std::__1::basic_string"** %7, align 8, !dbg !5432
  %9 = icmp ne %"class.std::__1::basic_string"* %6, %8, !dbg !5433
  br i1 %9, label %10, label %22, !dbg !5434

; <label>:10:                                     ; preds = %2
  %11 = call zeroext i1 @_ZN7testing8internal6IsTrueEb(i1 zeroext true), !dbg !5435
  br i1 %11, label %12, label %19, !dbg !5438

; <label>:12:                                     ; preds = %10
  %13 = getelementptr inbounds %"class.testing::internal::scoped_ptr.12", %"class.testing::internal::scoped_ptr.12"* %5, i32 0, i32 0, !dbg !5439
  %14 = load %"class.std::__1::basic_string"*, %"class.std::__1::basic_string"** %13, align 8, !dbg !5439
  %15 = icmp eq %"class.std::__1::basic_string"* %14, null, !dbg !5441
  br i1 %15, label %18, label %16, !dbg !5441

; <label>:16:                                     ; preds = %12
  call void @_ZNSt3__112basic_stringIcNS_11char_traitsIcEENS_9allocatorIcEEED1Ev(%"class.std::__1::basic_string"* %14) #10, !dbg !5441
  %17 = bitcast %"class.std::__1::basic_string"* %14 to i8*, !dbg !5441
  call void @_ZdlPv(i8* %17) #12, !dbg !5441
  br label %18, !dbg !5441

; <label>:18:                                     ; preds = %16, %12
  br label %19, !dbg !5442

; <label>:19:                                     ; preds = %18, %10
  %20 = load %"class.std::__1::basic_string"*, %"class.std::__1::basic_string"** %4, align 8, !dbg !5443
  %21 = getelementptr inbounds %"class.testing::internal::scoped_ptr.12", %"class.testing::internal::scoped_ptr.12"* %5, i32 0, i32 0, !dbg !5444
  store %"class.std::__1::basic_string"* %20, %"class.std::__1::basic_string"** %21, align 8, !dbg !5445
  br label %22, !dbg !5446

; <label>:22:                                     ; preds = %19, %2
  ret void, !dbg !5447
}

; Function Attrs: inlinehint nounwind ssp uwtable
define linkonce_odr void @_ZN30HelloTest_testSumOfTestee_TestD2Ev(%class.HelloTest_testSumOfTestee_Test*) unnamed_addr #3 align 2 !dbg !5448 {
  %2 = alloca %class.HelloTest_testSumOfTestee_Test*, align 8
  store %class.HelloTest_testSumOfTestee_Test* %0, %class.HelloTest_testSumOfTestee_Test** %2, align 8
  call void @llvm.dbg.declare(metadata %class.HelloTest_testSumOfTestee_Test** %2, metadata !5449, metadata !3978), !dbg !5450
  %3 = load %class.HelloTest_testSumOfTestee_Test*, %class.HelloTest_testSumOfTestee_Test** %2, align 8
  %4 = bitcast %class.HelloTest_testSumOfTestee_Test* %3 to %"class.testing::Test"*, !dbg !5451
  call void @_ZN7testing4TestD2Ev(%"class.testing::Test"* %4) #10, !dbg !5451
  ret void, !dbg !5453
}

; Function Attrs: nounwind
declare void @_ZN7testing4TestD2Ev(%"class.testing::Test"*) unnamed_addr #4

declare void @_ZNSt3__112basic_stringIcNS_11char_traitsIcEENS_9allocatorIcEEE6__initEPKcm(%"class.std::__1::basic_string"*, i8*, i64) #1

; Function Attrs: inlinehint nounwind ssp uwtable
define linkonce_odr i64 @_ZNSt3__111char_traitsIcE6lengthEPKc(i8*) #3 align 2 !dbg !5454 {
  %2 = alloca i8*, align 8
  store i8* %0, i8** %2, align 8
  call void @llvm.dbg.declare(metadata i8** %2, metadata !5455, metadata !3978), !dbg !5456
  %3 = load i8*, i8** %2, align 8, !dbg !5457
  %4 = call i64 @strlen(i8* %3), !dbg !5458
  ret i64 %4, !dbg !5459
}

; Function Attrs: argmemonly nounwind
declare void @llvm.memset.p0i8.i64(i8* nocapture writeonly, i8, i64, i32, i1) #7

declare i64 @strlen(i8*) #1

; Function Attrs: nounwind ssp uwtable
define linkonce_odr void @_ZN7testing8internal11CmpHelperEQIiiEENS_15AssertionResultEPKcS4_RKT_RKT0_(%"class.testing::AssertionResult"* noalias sret, i8*, i8*, i32* dereferenceable(4), i32* dereferenceable(4)) #0 !dbg !5460 {
  %6 = alloca i8*, align 8
  %7 = alloca i8*, align 8
  %8 = alloca i32*, align 8
  %9 = alloca i32*, align 8
  store i8* %1, i8** %6, align 8
  call void @llvm.dbg.declare(metadata i8** %6, metadata !5461, metadata !3978), !dbg !5462
  store i8* %2, i8** %7, align 8
  call void @llvm.dbg.declare(metadata i8** %7, metadata !5463, metadata !3978), !dbg !5464
  store i32* %3, i32** %8, align 8
  call void @llvm.dbg.declare(metadata i32** %8, metadata !5465, metadata !3978), !dbg !5466
  store i32* %4, i32** %9, align 8
  call void @llvm.dbg.declare(metadata i32** %9, metadata !5467, metadata !3978), !dbg !5468
  %10 = load i32*, i32** %8, align 8, !dbg !5469
  %11 = load i32, i32* %10, align 4, !dbg !5469
  %12 = load i32*, i32** %9, align 8, !dbg !5471
  %13 = load i32, i32* %12, align 4, !dbg !5471
  %14 = icmp eq i32 %11, %13, !dbg !5472
  br i1 %14, label %15, label %16, !dbg !5473

; <label>:15:                                     ; preds = %5
  call void @_ZN7testing16AssertionSuccessEv(%"class.testing::AssertionResult"* sret %0), !dbg !5474
  br label %21, !dbg !5476

; <label>:16:                                     ; preds = %5
  %17 = load i8*, i8** %6, align 8, !dbg !5477
  %18 = load i8*, i8** %7, align 8, !dbg !5478
  %19 = load i32*, i32** %8, align 8, !dbg !5479
  %20 = load i32*, i32** %9, align 8, !dbg !5480
  call void @_ZN7testing8internal18CmpHelperEQFailureIiiEENS_15AssertionResultEPKcS4_RKT_RKT0_(%"class.testing::AssertionResult"* sret %0, i8* %17, i8* %18, i32* dereferenceable(4) %19, i32* dereferenceable(4) %20), !dbg !5481
  br label %21, !dbg !5482

; <label>:21:                                     ; preds = %16, %15
  ret void, !dbg !5483
}

declare void @_ZN7testing16AssertionSuccessEv(%"class.testing::AssertionResult"* sret) #1

; Function Attrs: nounwind ssp uwtable
define linkonce_odr void @_ZN7testing8internal18CmpHelperEQFailureIiiEENS_15AssertionResultEPKcS4_RKT_RKT0_(%"class.testing::AssertionResult"* noalias sret, i8*, i8*, i32* dereferenceable(4), i32* dereferenceable(4)) #0 !dbg !5484 {
  %6 = alloca i8*, align 8
  %7 = alloca i8*, align 8
  %8 = alloca i32*, align 8
  %9 = alloca i32*, align 8
  %10 = alloca %"class.std::__1::basic_string", align 8
  %11 = alloca %"class.std::__1::basic_string", align 8
  store i8* %1, i8** %6, align 8
  call void @llvm.dbg.declare(metadata i8** %6, metadata !5485, metadata !3978), !dbg !5486
  store i8* %2, i8** %7, align 8
  call void @llvm.dbg.declare(metadata i8** %7, metadata !5487, metadata !3978), !dbg !5488
  store i32* %3, i32** %8, align 8
  call void @llvm.dbg.declare(metadata i32** %8, metadata !5489, metadata !3978), !dbg !5490
  store i32* %4, i32** %9, align 8
  call void @llvm.dbg.declare(metadata i32** %9, metadata !5491, metadata !3978), !dbg !5492
  %12 = load i8*, i8** %6, align 8, !dbg !5493
  %13 = load i8*, i8** %7, align 8, !dbg !5494
  %14 = load i32*, i32** %8, align 8, !dbg !5495
  %15 = load i32*, i32** %9, align 8, !dbg !5496
  call void @_ZN7testing8internal33FormatForComparisonFailureMessageIiiEENSt3__112basic_stringIcNS2_11char_traitsIcEENS2_9allocatorIcEEEERKT_RKT0_(%"class.std::__1::basic_string"* sret %10, i32* dereferenceable(4) %14, i32* dereferenceable(4) %15), !dbg !5497
  %16 = load i32*, i32** %9, align 8, !dbg !5498
  %17 = load i32*, i32** %8, align 8, !dbg !5499
  call void @_ZN7testing8internal33FormatForComparisonFailureMessageIiiEENSt3__112basic_stringIcNS2_11char_traitsIcEENS2_9allocatorIcEEEERKT_RKT0_(%"class.std::__1::basic_string"* sret %11, i32* dereferenceable(4) %16, i32* dereferenceable(4) %17), !dbg !5500
  call void @_ZN7testing8internal9EqFailureEPKcS2_RKNSt3__112basic_stringIcNS3_11char_traitsIcEENS3_9allocatorIcEEEESB_b(%"class.testing::AssertionResult"* sret %0, i8* %12, i8* %13, %"class.std::__1::basic_string"* dereferenceable(24) %10, %"class.std::__1::basic_string"* dereferenceable(24) %11, i1 zeroext false), !dbg !5501
  call void @_ZNSt3__112basic_stringIcNS_11char_traitsIcEENS_9allocatorIcEEED1Ev(%"class.std::__1::basic_string"* %11) #10, !dbg !5502
  call void @_ZNSt3__112basic_stringIcNS_11char_traitsIcEENS_9allocatorIcEEED1Ev(%"class.std::__1::basic_string"* %10) #10, !dbg !5502
  ret void, !dbg !5502
}

declare void @_ZN7testing8internal9EqFailureEPKcS2_RKNSt3__112basic_stringIcNS3_11char_traitsIcEENS3_9allocatorIcEEEESB_b(%"class.testing::AssertionResult"* sret, i8*, i8*, %"class.std::__1::basic_string"* dereferenceable(24), %"class.std::__1::basic_string"* dereferenceable(24), i1 zeroext) #1

; Function Attrs: nounwind ssp uwtable
define linkonce_odr void @_ZN7testing8internal33FormatForComparisonFailureMessageIiiEENSt3__112basic_stringIcNS2_11char_traitsIcEENS2_9allocatorIcEEEERKT_RKT0_(%"class.std::__1::basic_string"* noalias sret, i32* dereferenceable(4), i32* dereferenceable(4)) #0 !dbg !5503 {
  %4 = alloca i32*, align 8
  %5 = alloca i32*, align 8
  store i32* %1, i32** %4, align 8
  call void @llvm.dbg.declare(metadata i32** %4, metadata !5506, metadata !3978), !dbg !5507
  store i32* %2, i32** %5, align 8
  call void @llvm.dbg.declare(metadata i32** %5, metadata !5508, metadata !3978), !dbg !5509
  %6 = load i32*, i32** %4, align 8, !dbg !5510
  call void @_ZN7testing8internal19FormatForComparisonIiiE6FormatERKi(%"class.std::__1::basic_string"* sret %0, i32* dereferenceable(4) %6), !dbg !5511
  ret void, !dbg !5512
}

; Function Attrs: nounwind ssp uwtable
define linkonce_odr void @_ZN7testing8internal19FormatForComparisonIiiE6FormatERKi(%"class.std::__1::basic_string"* noalias sret, i32* dereferenceable(4)) #0 align 2 !dbg !5513 {
  %3 = alloca i32*, align 8
  store i32* %1, i32** %3, align 8
  call void @llvm.dbg.declare(metadata i32** %3, metadata !5522, metadata !3978), !dbg !5523
  %4 = load i32*, i32** %3, align 8, !dbg !5524
  call void @_ZN7testing13PrintToStringIiEENSt3__112basic_stringIcNS1_11char_traitsIcEENS1_9allocatorIcEEEERKT_(%"class.std::__1::basic_string"* sret %0, i32* dereferenceable(4) %4), !dbg !5525
  ret void, !dbg !5526
}

; Function Attrs: nounwind ssp uwtable
define linkonce_odr void @_ZN7testing13PrintToStringIiEENSt3__112basic_stringIcNS1_11char_traitsIcEENS1_9allocatorIcEEEERKT_(%"class.std::__1::basic_string"* noalias sret, i32* dereferenceable(4)) #0 !dbg !5527 {
  %3 = alloca %"class.std::__1::basic_stringstream"*, align 8
  call void @llvm.dbg.declare(metadata %"class.std::__1::basic_stringstream"** %3, metadata !5528, metadata !3978), !dbg !5531
  %4 = alloca %"class.std::__1::basic_ostream"*, align 8
  call void @llvm.dbg.declare(metadata %"class.std::__1::basic_ostream"** %4, metadata !5533, metadata !3978), !dbg !5535
  %5 = alloca i8**, align 8
  call void @llvm.dbg.declare(metadata i8*** %5, metadata !5541, metadata !3978), !dbg !5535
  %6 = alloca %"class.std::__1::basic_ios"*, align 8
  call void @llvm.dbg.declare(metadata %"class.std::__1::basic_ios"** %6, metadata !5542, metadata !3978), !dbg !5545
  %7 = alloca %"class.std::__1::basic_streambuf"*, align 8
  call void @llvm.dbg.declare(metadata %"class.std::__1::basic_streambuf"** %7, metadata !5550, metadata !3978), !dbg !5551
  %8 = alloca %"class.std::__1::basic_istream"*, align 8
  call void @llvm.dbg.declare(metadata %"class.std::__1::basic_istream"** %8, metadata !5552, metadata !3978), !dbg !5554
  %9 = alloca i8**, align 8
  call void @llvm.dbg.declare(metadata i8*** %9, metadata !5555, metadata !3978), !dbg !5554
  %10 = alloca %"class.std::__1::basic_streambuf"*, align 8
  call void @llvm.dbg.declare(metadata %"class.std::__1::basic_streambuf"** %10, metadata !5556, metadata !3978), !dbg !5557
  %11 = alloca %"class.std::__1::basic_iostream"*, align 8
  call void @llvm.dbg.declare(metadata %"class.std::__1::basic_iostream"** %11, metadata !5558, metadata !3978), !dbg !5560
  %12 = alloca i8**, align 8
  call void @llvm.dbg.declare(metadata i8*** %12, metadata !5561, metadata !3978), !dbg !5560
  %13 = alloca %"class.std::__1::basic_streambuf"*, align 8
  call void @llvm.dbg.declare(metadata %"class.std::__1::basic_streambuf"** %13, metadata !5562, metadata !3978), !dbg !5563
  %14 = alloca %"class.std::__1::__libcpp_compressed_pair_imp"*, align 8
  call void @llvm.dbg.declare(metadata %"class.std::__1::__libcpp_compressed_pair_imp"** %14, metadata !5564, metadata !3978), !dbg !5566
  %15 = alloca %"class.std::__1::__compressed_pair"*, align 8
  call void @llvm.dbg.declare(metadata %"class.std::__1::__compressed_pair"** %15, metadata !5582, metadata !3978), !dbg !5583
  %16 = alloca %"class.std::__1::basic_string"*, align 8
  call void @llvm.dbg.declare(metadata %"class.std::__1::basic_string"** %16, metadata !5584, metadata !3978), !dbg !5585
  %17 = alloca [3 x i64]*, align 8
  call void @llvm.dbg.declare(metadata [3 x i64]** %17, metadata !5586, metadata !3978), !dbg !5588
  %18 = alloca i32, align 4
  call void @llvm.dbg.declare(metadata i32* %18, metadata !5589, metadata !3978), !dbg !5591
  %19 = alloca %"class.std::__1::allocator"*, align 8
  call void @llvm.dbg.declare(metadata %"class.std::__1::allocator"** %19, metadata !3975, metadata !3978), !dbg !5592
  %20 = alloca %"class.std::__1::__libcpp_compressed_pair_imp"*, align 8
  call void @llvm.dbg.declare(metadata %"class.std::__1::__libcpp_compressed_pair_imp"** %20, metadata !3991, metadata !3978), !dbg !5597
  %21 = alloca %"class.std::__1::__compressed_pair"*, align 8
  call void @llvm.dbg.declare(metadata %"class.std::__1::__compressed_pair"** %21, metadata !3994, metadata !3978), !dbg !5598
  %22 = alloca %"class.std::__1::__compressed_pair"*, align 8
  call void @llvm.dbg.declare(metadata %"class.std::__1::__compressed_pair"** %22, metadata !3997, metadata !3978), !dbg !5599
  %23 = alloca %"class.std::__1::basic_string"*, align 8
  call void @llvm.dbg.declare(metadata %"class.std::__1::basic_string"** %23, metadata !5600, metadata !3978), !dbg !5601
  %24 = alloca %"class.std::__1::basic_string"*, align 8
  call void @llvm.dbg.declare(metadata %"class.std::__1::basic_string"** %24, metadata !5602, metadata !3978), !dbg !5603
  %25 = alloca %"class.std::__1::__libcpp_compressed_pair_imp"*, align 8
  call void @llvm.dbg.declare(metadata %"class.std::__1::__libcpp_compressed_pair_imp"** %25, metadata !5564, metadata !3978), !dbg !5604
  %26 = alloca %"class.std::__1::__compressed_pair"*, align 8
  call void @llvm.dbg.declare(metadata %"class.std::__1::__compressed_pair"** %26, metadata !5582, metadata !3978), !dbg !5610
  %27 = alloca %"class.std::__1::basic_string"*, align 8
  call void @llvm.dbg.declare(metadata %"class.std::__1::basic_string"** %27, metadata !5584, metadata !3978), !dbg !5611
  %28 = alloca [3 x i64]*, align 8
  call void @llvm.dbg.declare(metadata [3 x i64]** %28, metadata !5586, metadata !3978), !dbg !5612
  %29 = alloca i32, align 4
  call void @llvm.dbg.declare(metadata i32* %29, metadata !5589, metadata !3978), !dbg !5613
  %30 = alloca %"class.std::__1::allocator"*, align 8
  call void @llvm.dbg.declare(metadata %"class.std::__1::allocator"** %30, metadata !3975, metadata !3978), !dbg !5614
  %31 = alloca %"class.std::__1::__libcpp_compressed_pair_imp"*, align 8
  call void @llvm.dbg.declare(metadata %"class.std::__1::__libcpp_compressed_pair_imp"** %31, metadata !3991, metadata !3978), !dbg !5619
  %32 = alloca %"class.std::__1::__compressed_pair"*, align 8
  call void @llvm.dbg.declare(metadata %"class.std::__1::__compressed_pair"** %32, metadata !3994, metadata !3978), !dbg !5620
  %33 = alloca %"class.std::__1::__compressed_pair"*, align 8
  call void @llvm.dbg.declare(metadata %"class.std::__1::__compressed_pair"** %33, metadata !3997, metadata !3978), !dbg !5621
  %34 = alloca %"class.std::__1::basic_string"*, align 8
  call void @llvm.dbg.declare(metadata %"class.std::__1::basic_string"** %34, metadata !5600, metadata !3978), !dbg !5622
  %35 = alloca %"class.std::__1::basic_string"*, align 8
  call void @llvm.dbg.declare(metadata %"class.std::__1::basic_string"** %35, metadata !5602, metadata !3978), !dbg !5623
  %36 = alloca %"class.std::__1::basic_stringbuf"*, align 8
  call void @llvm.dbg.declare(metadata %"class.std::__1::basic_stringbuf"** %36, metadata !5624, metadata !3978), !dbg !5625
  %37 = alloca i32, align 4
  call void @llvm.dbg.declare(metadata i32* %37, metadata !5626, metadata !3978), !dbg !5627
  %38 = alloca %"class.std::__1::basic_string", align 8
  %39 = alloca %"class.std::__1::basic_stringbuf"*, align 8
  call void @llvm.dbg.declare(metadata %"class.std::__1::basic_stringbuf"** %39, metadata !5628, metadata !3978), !dbg !5629
  %40 = alloca i32, align 4
  call void @llvm.dbg.declare(metadata i32* %40, metadata !5630, metadata !3978), !dbg !5631
  %41 = alloca %"class.std::__1::ios_base"*, align 8
  call void @llvm.dbg.declare(metadata %"class.std::__1::ios_base"** %41, metadata !5632, metadata !3978), !dbg !5635
  %42 = alloca %"class.std::__1::basic_ios"*, align 8
  call void @llvm.dbg.declare(metadata %"class.std::__1::basic_ios"** %42, metadata !5639, metadata !3978), !dbg !5640
  %43 = alloca %"class.std::__1::basic_stringstream"*, align 8
  call void @llvm.dbg.declare(metadata %"class.std::__1::basic_stringstream"** %43, metadata !5641, metadata !3978), !dbg !5642
  %44 = alloca i32, align 4
  call void @llvm.dbg.declare(metadata i32* %44, metadata !5643, metadata !3978), !dbg !5644
  %45 = alloca i32*, align 8
  %46 = alloca %"class.std::__1::basic_stringstream", align 8
  store i32* %1, i32** %45, align 8
  call void @llvm.dbg.declare(metadata i32** %45, metadata !5645, metadata !3978), !dbg !5646
  call void @llvm.dbg.declare(metadata %"class.std::__1::basic_stringstream"* %46, metadata !5647, metadata !3978), !dbg !5649
  store %"class.std::__1::basic_stringstream"* %46, %"class.std::__1::basic_stringstream"** %43, align 8, !dbg !5649
  store i32 24, i32* %44, align 4, !dbg !5649
  %47 = load %"class.std::__1::basic_stringstream"*, %"class.std::__1::basic_stringstream"** %43, align 8, !dbg !5649
  %48 = bitcast %"class.std::__1::basic_stringstream"* %47 to i8*, !dbg !5650
  %49 = getelementptr inbounds i8, i8* %48, i64 128, !dbg !5650
  %50 = bitcast i8* %49 to %"class.std::__1::basic_ios"*, !dbg !5650
  store %"class.std::__1::basic_ios"* %50, %"class.std::__1::basic_ios"** %42, align 8, !dbg !5651
  %51 = load %"class.std::__1::basic_ios"*, %"class.std::__1::basic_ios"** %42, align 8, !dbg !5651
  %52 = bitcast %"class.std::__1::basic_ios"* %51 to %"class.std::__1::ios_base"*, !dbg !5652
  store %"class.std::__1::ios_base"* %52, %"class.std::__1::ios_base"** %41, align 8, !dbg !5653
  %53 = load %"class.std::__1::ios_base"*, %"class.std::__1::ios_base"** %41, align 8, !dbg !5653
  %54 = bitcast %"class.std::__1::ios_base"* %53 to i32 (...)***, !dbg !5654
  store i32 (...)** bitcast (i8** getelementptr inbounds ([4 x i8*], [4 x i8*]* @_ZTVNSt3__18ios_baseE, i32 0, i32 2) to i32 (...)**), i32 (...)*** %54, align 8, !dbg !5654
  %55 = bitcast %"class.std::__1::basic_ios"* %51 to i32 (...)***, !dbg !5652
  store i32 (...)** bitcast (i8** getelementptr inbounds ([4 x i8*], [4 x i8*]* @_ZTVNSt3__19basic_iosIcNS_11char_traitsIcEEEE, i32 0, i32 2) to i32 (...)**), i32 (...)*** %55, align 8, !dbg !5652
  %56 = bitcast %"class.std::__1::basic_stringstream"* %47 to i32 (...)***, !dbg !5650
  store i32 (...)** bitcast (i8** getelementptr inbounds ([15 x i8*], [15 x i8*]* @_ZTVNSt3__118basic_stringstreamIcNS_11char_traitsIcEENS_9allocatorIcEEEE, i32 0, i32 3) to i32 (...)**), i32 (...)*** %56, align 8, !dbg !5650
  %57 = bitcast %"class.std::__1::basic_stringstream"* %47 to i8*, !dbg !5650
  %58 = getelementptr inbounds i8, i8* %57, i64 128, !dbg !5650
  %59 = bitcast i8* %58 to i32 (...)***, !dbg !5650
  store i32 (...)** bitcast (i8** getelementptr inbounds ([15 x i8*], [15 x i8*]* @_ZTVNSt3__118basic_stringstreamIcNS_11char_traitsIcEENS_9allocatorIcEEEE, i32 0, i32 13) to i32 (...)**), i32 (...)*** %59, align 8, !dbg !5650
  %60 = bitcast %"class.std::__1::basic_stringstream"* %47 to i8*, !dbg !5650
  %61 = getelementptr inbounds i8, i8* %60, i64 16, !dbg !5650
  %62 = bitcast i8* %61 to i32 (...)***, !dbg !5650
  store i32 (...)** bitcast (i8** getelementptr inbounds ([15 x i8*], [15 x i8*]* @_ZTVNSt3__118basic_stringstreamIcNS_11char_traitsIcEENS_9allocatorIcEEEE, i32 0, i32 8) to i32 (...)**), i32 (...)*** %62, align 8, !dbg !5650
  %63 = bitcast %"class.std::__1::basic_stringstream"* %47 to %"class.std::__1::basic_iostream"*, !dbg !5650
  %64 = getelementptr inbounds %"class.std::__1::basic_stringstream", %"class.std::__1::basic_stringstream"* %47, i32 0, i32 1, !dbg !5655
  %65 = bitcast %"class.std::__1::basic_stringbuf"* %64 to %"class.std::__1::basic_streambuf"*, !dbg !5656
  store %"class.std::__1::basic_iostream"* %63, %"class.std::__1::basic_iostream"** %11, align 8, !dbg !5657
  store i8** getelementptr inbounds ([10 x i8*], [10 x i8*]* @_ZTTNSt3__118basic_stringstreamIcNS_11char_traitsIcEENS_9allocatorIcEEEE, i64 0, i64 1), i8*** %12, align 8, !dbg !5657
  store %"class.std::__1::basic_streambuf"* %65, %"class.std::__1::basic_streambuf"** %13, align 8, !dbg !5657
  %66 = load %"class.std::__1::basic_iostream"*, %"class.std::__1::basic_iostream"** %11, align 8, !dbg !5657
  %67 = load i8**, i8*** %12, align 8, !dbg !5657
  %68 = bitcast %"class.std::__1::basic_iostream"* %66 to %"class.std::__1::basic_istream"*, !dbg !5658
  %69 = load %"class.std::__1::basic_streambuf"*, %"class.std::__1::basic_streambuf"** %13, align 8, !dbg !5659
  %70 = getelementptr inbounds i8*, i8** %67, i64 1, !dbg !5660
  store %"class.std::__1::basic_istream"* %68, %"class.std::__1::basic_istream"** %8, align 8, !dbg !5660
  store i8** %70, i8*** %9, align 8, !dbg !5660
  store %"class.std::__1::basic_streambuf"* %69, %"class.std::__1::basic_streambuf"** %10, align 8, !dbg !5660
  %71 = load %"class.std::__1::basic_istream"*, %"class.std::__1::basic_istream"** %8, align 8, !dbg !5660
  %72 = load i8**, i8*** %9, align 8, !dbg !5660
  %73 = load i8*, i8** %72, align 8, !dbg !5661
  %74 = bitcast %"class.std::__1::basic_istream"* %71 to i32 (...)***, !dbg !5661
  %75 = bitcast i8* %73 to i32 (...)**, !dbg !5661
  store i32 (...)** %75, i32 (...)*** %74, align 8, !dbg !5661
  %76 = getelementptr inbounds i8*, i8** %72, i64 1, !dbg !5661
  %77 = load i8*, i8** %76, align 8, !dbg !5661
  %78 = bitcast %"class.std::__1::basic_istream"* %71 to i8**, !dbg !5661
  %79 = load i8*, i8** %78, align 8, !dbg !5661
  %80 = getelementptr i8, i8* %79, i64 -24, !dbg !5661
  %81 = bitcast i8* %80 to i64*, !dbg !5661
  %82 = load i64, i64* %81, align 8, !dbg !5661
  %83 = bitcast %"class.std::__1::basic_istream"* %71 to i8*, !dbg !5661
  %84 = getelementptr inbounds i8, i8* %83, i64 %82, !dbg !5661
  %85 = bitcast i8* %84 to i32 (...)***, !dbg !5661
  %86 = bitcast i8* %77 to i32 (...)**, !dbg !5661
  store i32 (...)** %86, i32 (...)*** %85, align 8, !dbg !5661
  %87 = getelementptr inbounds %"class.std::__1::basic_istream", %"class.std::__1::basic_istream"* %71, i32 0, i32 1, !dbg !5662
  store i64 0, i64* %87, align 8, !dbg !5662
  %88 = bitcast %"class.std::__1::basic_istream"* %71 to i8**, !dbg !5663
  %89 = load i8*, i8** %88, align 8, !dbg !5663
  %90 = getelementptr i8, i8* %89, i64 -24, !dbg !5663
  %91 = bitcast i8* %90 to i64*, !dbg !5663
  %92 = load i64, i64* %91, align 8, !dbg !5663
  %93 = bitcast %"class.std::__1::basic_istream"* %71 to i8*, !dbg !5663
  %94 = getelementptr inbounds i8, i8* %93, i64 %92, !dbg !5663
  %95 = bitcast i8* %94 to %"class.std::__1::basic_ios"*, !dbg !5663
  %96 = load %"class.std::__1::basic_streambuf"*, %"class.std::__1::basic_streambuf"** %10, align 8, !dbg !5664
  store %"class.std::__1::basic_ios"* %95, %"class.std::__1::basic_ios"** %6, align 8, !dbg !5663
  store %"class.std::__1::basic_streambuf"* %96, %"class.std::__1::basic_streambuf"** %7, align 8, !dbg !5663
  %97 = load %"class.std::__1::basic_ios"*, %"class.std::__1::basic_ios"** %6, align 8, !dbg !5663
  %98 = bitcast %"class.std::__1::basic_ios"* %97 to %"class.std::__1::ios_base"*, !dbg !5665
  %99 = load %"class.std::__1::basic_streambuf"*, %"class.std::__1::basic_streambuf"** %7, align 8, !dbg !5666
  %100 = bitcast %"class.std::__1::basic_streambuf"* %99 to i8*, !dbg !5666
  call void @_ZNSt3__18ios_base4initEPv(%"class.std::__1::ios_base"* %98, i8* %100) #10, !dbg !5665
  %101 = getelementptr inbounds %"class.std::__1::basic_ios", %"class.std::__1::basic_ios"* %97, i32 0, i32 1, !dbg !5667
  store %"class.std::__1::basic_ostream"* null, %"class.std::__1::basic_ostream"** %101, align 8, !dbg !5668
  %102 = call i32 @_ZNSt3__111char_traitsIcE3eofEv() #10, !dbg !5669
  %103 = getelementptr inbounds %"class.std::__1::basic_ios", %"class.std::__1::basic_ios"* %97, i32 0, i32 2, !dbg !5670
  store i32 %102, i32* %103, align 8, !dbg !5671
  %104 = bitcast %"class.std::__1::basic_iostream"* %66 to i8*, !dbg !5658
  %105 = getelementptr inbounds i8, i8* %104, i64 16, !dbg !5658
  %106 = bitcast i8* %105 to %"class.std::__1::basic_ostream"*, !dbg !5658
  %107 = getelementptr inbounds i8*, i8** %67, i64 3, !dbg !5672
  store %"class.std::__1::basic_ostream"* %106, %"class.std::__1::basic_ostream"** %4, align 8, !dbg !5672
  store i8** %107, i8*** %5, align 8, !dbg !5672
  %108 = load %"class.std::__1::basic_ostream"*, %"class.std::__1::basic_ostream"** %4, align 8, !dbg !5672
  %109 = load i8**, i8*** %5, align 8, !dbg !5672
  %110 = load i8*, i8** %109, align 8, !dbg !5673
  %111 = bitcast %"class.std::__1::basic_ostream"* %108 to i32 (...)***, !dbg !5673
  %112 = bitcast i8* %110 to i32 (...)**, !dbg !5673
  store i32 (...)** %112, i32 (...)*** %111, align 8, !dbg !5673
  %113 = getelementptr inbounds i8*, i8** %109, i64 1, !dbg !5673
  %114 = load i8*, i8** %113, align 8, !dbg !5673
  %115 = bitcast %"class.std::__1::basic_ostream"* %108 to i8**, !dbg !5673
  %116 = load i8*, i8** %115, align 8, !dbg !5673
  %117 = getelementptr i8, i8* %116, i64 -24, !dbg !5673
  %118 = bitcast i8* %117 to i64*, !dbg !5673
  %119 = load i64, i64* %118, align 8, !dbg !5673
  %120 = bitcast %"class.std::__1::basic_ostream"* %108 to i8*, !dbg !5673
  %121 = getelementptr inbounds i8, i8* %120, i64 %119, !dbg !5673
  %122 = bitcast i8* %121 to i32 (...)***, !dbg !5673
  %123 = bitcast i8* %114 to i32 (...)**, !dbg !5673
  store i32 (...)** %123, i32 (...)*** %122, align 8, !dbg !5673
  %124 = load i8*, i8** %67, align 8, !dbg !5658
  %125 = bitcast %"class.std::__1::basic_iostream"* %66 to i32 (...)***, !dbg !5658
  %126 = bitcast i8* %124 to i32 (...)**, !dbg !5658
  store i32 (...)** %126, i32 (...)*** %125, align 8, !dbg !5658
  %127 = getelementptr inbounds i8*, i8** %67, i64 5, !dbg !5658
  %128 = load i8*, i8** %127, align 8, !dbg !5658
  %129 = bitcast %"class.std::__1::basic_iostream"* %66 to i8**, !dbg !5658
  %130 = load i8*, i8** %129, align 8, !dbg !5658
  %131 = getelementptr i8, i8* %130, i64 -24, !dbg !5658
  %132 = bitcast i8* %131 to i64*, !dbg !5658
  %133 = load i64, i64* %132, align 8, !dbg !5658
  %134 = bitcast %"class.std::__1::basic_iostream"* %66 to i8*, !dbg !5658
  %135 = getelementptr inbounds i8, i8* %134, i64 %133, !dbg !5658
  %136 = bitcast i8* %135 to i32 (...)***, !dbg !5658
  %137 = bitcast i8* %128 to i32 (...)**, !dbg !5658
  store i32 (...)** %137, i32 (...)*** %136, align 8, !dbg !5658
  %138 = getelementptr inbounds i8*, i8** %67, i64 6, !dbg !5658
  %139 = load i8*, i8** %138, align 8, !dbg !5658
  %140 = bitcast %"class.std::__1::basic_iostream"* %66 to i8*, !dbg !5658
  %141 = getelementptr inbounds i8, i8* %140, i64 16, !dbg !5658
  %142 = bitcast i8* %141 to i32 (...)***, !dbg !5658
  %143 = bitcast i8* %139 to i32 (...)**, !dbg !5658
  store i32 (...)** %143, i32 (...)*** %142, align 8, !dbg !5658
  %144 = bitcast %"class.std::__1::basic_stringstream"* %47 to i32 (...)***, !dbg !5650
  store i32 (...)** bitcast (i8** getelementptr inbounds ([15 x i8*], [15 x i8*]* @_ZTVNSt3__118basic_stringstreamIcNS_11char_traitsIcEENS_9allocatorIcEEEE, i32 0, i32 3) to i32 (...)**), i32 (...)*** %144, align 8, !dbg !5650
  %145 = bitcast %"class.std::__1::basic_stringstream"* %47 to i8*, !dbg !5650
  %146 = getelementptr inbounds i8, i8* %145, i64 128, !dbg !5650
  %147 = bitcast i8* %146 to i32 (...)***, !dbg !5650
  store i32 (...)** bitcast (i8** getelementptr inbounds ([15 x i8*], [15 x i8*]* @_ZTVNSt3__118basic_stringstreamIcNS_11char_traitsIcEENS_9allocatorIcEEEE, i32 0, i32 13) to i32 (...)**), i32 (...)*** %147, align 8, !dbg !5650
  %148 = bitcast %"class.std::__1::basic_stringstream"* %47 to i8*, !dbg !5650
  %149 = getelementptr inbounds i8, i8* %148, i64 16, !dbg !5650
  %150 = bitcast i8* %149 to i32 (...)***, !dbg !5650
  store i32 (...)** bitcast (i8** getelementptr inbounds ([15 x i8*], [15 x i8*]* @_ZTVNSt3__118basic_stringstreamIcNS_11char_traitsIcEENS_9allocatorIcEEEE, i32 0, i32 8) to i32 (...)**), i32 (...)*** %150, align 8, !dbg !5650
  %151 = getelementptr inbounds %"class.std::__1::basic_stringstream", %"class.std::__1::basic_stringstream"* %47, i32 0, i32 1, !dbg !5674
  %152 = load i32, i32* %44, align 4, !dbg !5675
  store %"class.std::__1::basic_stringbuf"* %151, %"class.std::__1::basic_stringbuf"** %39, align 8, !dbg !5674
  store i32 %152, i32* %40, align 4, !dbg !5674
  %153 = load %"class.std::__1::basic_stringbuf"*, %"class.std::__1::basic_stringbuf"** %39, align 8, !dbg !5674
  %154 = load i32, i32* %40, align 4, !dbg !5676
  store %"class.std::__1::basic_stringbuf"* %153, %"class.std::__1::basic_stringbuf"** %36, align 8, !dbg !5676
  store i32 %154, i32* %37, align 4, !dbg !5676
  %155 = load %"class.std::__1::basic_stringbuf"*, %"class.std::__1::basic_stringbuf"** %36, align 8, !dbg !5676
  %156 = bitcast %"class.std::__1::basic_stringbuf"* %155 to %"class.std::__1::basic_streambuf"*, !dbg !5677
  call void @_ZNSt3__115basic_streambufIcNS_11char_traitsIcEEEC2Ev(%"class.std::__1::basic_streambuf"* %156) #10, !dbg !5678
  %157 = bitcast %"class.std::__1::basic_stringbuf"* %155 to i32 (...)***, !dbg !5677
  store i32 (...)** bitcast (i8** getelementptr inbounds ([16 x i8*], [16 x i8*]* @_ZTVNSt3__115basic_stringbufIcNS_11char_traitsIcEENS_9allocatorIcEEEE, i32 0, i32 2) to i32 (...)**), i32 (...)*** %157, align 8, !dbg !5677
  %158 = getelementptr inbounds %"class.std::__1::basic_stringbuf", %"class.std::__1::basic_stringbuf"* %155, i32 0, i32 1, !dbg !5678
  store %"class.std::__1::basic_string"* %158, %"class.std::__1::basic_string"** %35, align 8, !dbg !5678
  %159 = load %"class.std::__1::basic_string"*, %"class.std::__1::basic_string"** %35, align 8, !dbg !5678
  store %"class.std::__1::basic_string"* %159, %"class.std::__1::basic_string"** %34, align 8, !dbg !5679
  %160 = load %"class.std::__1::basic_string"*, %"class.std::__1::basic_string"** %34, align 8, !dbg !5679
  %161 = bitcast %"class.std::__1::basic_string"* %160 to %"class.std::__1::__basic_string_common"*, !dbg !5680
  %162 = getelementptr inbounds %"class.std::__1::basic_string", %"class.std::__1::basic_string"* %160, i32 0, i32 0, !dbg !5681
  store %"class.std::__1::__compressed_pair"* %162, %"class.std::__1::__compressed_pair"** %33, align 8, !dbg !5681
  %163 = load %"class.std::__1::__compressed_pair"*, %"class.std::__1::__compressed_pair"** %33, align 8, !dbg !5681
  store %"class.std::__1::__compressed_pair"* %163, %"class.std::__1::__compressed_pair"** %32, align 8, !dbg !5682
  %164 = load %"class.std::__1::__compressed_pair"*, %"class.std::__1::__compressed_pair"** %32, align 8, !dbg !5682
  %165 = bitcast %"class.std::__1::__compressed_pair"* %164 to %"class.std::__1::__libcpp_compressed_pair_imp"*, !dbg !5683
  store %"class.std::__1::__libcpp_compressed_pair_imp"* %165, %"class.std::__1::__libcpp_compressed_pair_imp"** %31, align 8, !dbg !5684
  %166 = load %"class.std::__1::__libcpp_compressed_pair_imp"*, %"class.std::__1::__libcpp_compressed_pair_imp"** %31, align 8, !dbg !5684
  %167 = bitcast %"class.std::__1::__libcpp_compressed_pair_imp"* %166 to %"class.std::__1::allocator"*, !dbg !5685
  store %"class.std::__1::allocator"* %167, %"class.std::__1::allocator"** %30, align 8, !dbg !5686
  %168 = load %"class.std::__1::allocator"*, %"class.std::__1::allocator"** %30, align 8, !dbg !5686
  %169 = getelementptr inbounds %"class.std::__1::__libcpp_compressed_pair_imp", %"class.std::__1::__libcpp_compressed_pair_imp"* %166, i32 0, i32 0, !dbg !5687
  %170 = bitcast %"struct.std::__1::basic_string<char, std::__1::char_traits<char>, std::__1::allocator<char> >::__rep"* %169 to i8*, !dbg !5687
  call void @llvm.memset.p0i8.i64(i8* %170, i8 0, i64 24, i32 8, i1 false) #10, !dbg !5687
  store %"class.std::__1::basic_string"* %160, %"class.std::__1::basic_string"** %27, align 8, !dbg !5688
  %171 = load %"class.std::__1::basic_string"*, %"class.std::__1::basic_string"** %27, align 8, !dbg !5688
  %172 = getelementptr inbounds %"class.std::__1::basic_string", %"class.std::__1::basic_string"* %171, i32 0, i32 0, !dbg !5689
  store %"class.std::__1::__compressed_pair"* %172, %"class.std::__1::__compressed_pair"** %26, align 8, !dbg !5690
  %173 = load %"class.std::__1::__compressed_pair"*, %"class.std::__1::__compressed_pair"** %26, align 8, !dbg !5690
  %174 = bitcast %"class.std::__1::__compressed_pair"* %173 to %"class.std::__1::__libcpp_compressed_pair_imp"*, !dbg !5691
  store %"class.std::__1::__libcpp_compressed_pair_imp"* %174, %"class.std::__1::__libcpp_compressed_pair_imp"** %25, align 8, !dbg !5691
  %175 = load %"class.std::__1::__libcpp_compressed_pair_imp"*, %"class.std::__1::__libcpp_compressed_pair_imp"** %25, align 8, !dbg !5691
  %176 = getelementptr inbounds %"class.std::__1::__libcpp_compressed_pair_imp", %"class.std::__1::__libcpp_compressed_pair_imp"* %175, i32 0, i32 0, !dbg !5692
  %177 = getelementptr inbounds %"struct.std::__1::basic_string<char, std::__1::char_traits<char>, std::__1::allocator<char> >::__rep", %"struct.std::__1::basic_string<char, std::__1::char_traits<char>, std::__1::allocator<char> >::__rep"* %176, i32 0, i32 0, !dbg !5693
  %178 = bitcast %union.anon* %177 to %"struct.std::__1::basic_string<char, std::__1::char_traits<char>, std::__1::allocator<char> >::__raw"*, !dbg !5693
  %179 = getelementptr inbounds %"struct.std::__1::basic_string<char, std::__1::char_traits<char>, std::__1::allocator<char> >::__raw", %"struct.std::__1::basic_string<char, std::__1::char_traits<char>, std::__1::allocator<char> >::__raw"* %178, i32 0, i32 0, !dbg !5694
  store [3 x i64]* %179, [3 x i64]** %28, align 8, !dbg !5612
  store i32 0, i32* %29, align 4, !dbg !5613
  br label %180, !dbg !5695

; <label>:180:                                    ; preds = %183, %2
  %181 = load i32, i32* %29, align 4, !dbg !5696
  %182 = icmp ult i32 %181, 3, !dbg !5698
  br i1 %182, label %183, label %190, !dbg !5699

; <label>:183:                                    ; preds = %180
  %184 = load i32, i32* %29, align 4, !dbg !5700
  %185 = zext i32 %184 to i64, !dbg !5701
  %186 = load [3 x i64]*, [3 x i64]** %28, align 8, !dbg !5701
  %187 = getelementptr inbounds [3 x i64], [3 x i64]* %186, i64 0, i64 %185, !dbg !5701
  store i64 0, i64* %187, align 8, !dbg !5702
  %188 = load i32, i32* %29, align 4, !dbg !5703
  %189 = add i32 %188, 1, !dbg !5703
  store i32 %189, i32* %29, align 4, !dbg !5703
  br label %180, !dbg !5704, !llvm.loop !5705

; <label>:190:                                    ; preds = %180
  %191 = getelementptr inbounds %"class.std::__1::basic_stringbuf", %"class.std::__1::basic_stringbuf"* %155, i32 0, i32 2, !dbg !5707
  store i8* null, i8** %191, align 8, !dbg !5707
  %192 = getelementptr inbounds %"class.std::__1::basic_stringbuf", %"class.std::__1::basic_stringbuf"* %155, i32 0, i32 3, !dbg !5708
  %193 = load i32, i32* %37, align 4, !dbg !5709
  store i32 %193, i32* %192, align 8, !dbg !5708
  store %"class.std::__1::basic_string"* %38, %"class.std::__1::basic_string"** %24, align 8, !dbg !5710
  %194 = load %"class.std::__1::basic_string"*, %"class.std::__1::basic_string"** %24, align 8, !dbg !5710
  store %"class.std::__1::basic_string"* %194, %"class.std::__1::basic_string"** %23, align 8, !dbg !5711
  %195 = load %"class.std::__1::basic_string"*, %"class.std::__1::basic_string"** %23, align 8, !dbg !5711
  %196 = bitcast %"class.std::__1::basic_string"* %195 to %"class.std::__1::__basic_string_common"*, !dbg !5712
  %197 = getelementptr inbounds %"class.std::__1::basic_string", %"class.std::__1::basic_string"* %195, i32 0, i32 0, !dbg !5713
  store %"class.std::__1::__compressed_pair"* %197, %"class.std::__1::__compressed_pair"** %22, align 8, !dbg !5713
  %198 = load %"class.std::__1::__compressed_pair"*, %"class.std::__1::__compressed_pair"** %22, align 8, !dbg !5713
  store %"class.std::__1::__compressed_pair"* %198, %"class.std::__1::__compressed_pair"** %21, align 8, !dbg !5714
  %199 = load %"class.std::__1::__compressed_pair"*, %"class.std::__1::__compressed_pair"** %21, align 8, !dbg !5714
  %200 = bitcast %"class.std::__1::__compressed_pair"* %199 to %"class.std::__1::__libcpp_compressed_pair_imp"*, !dbg !5715
  store %"class.std::__1::__libcpp_compressed_pair_imp"* %200, %"class.std::__1::__libcpp_compressed_pair_imp"** %20, align 8, !dbg !5716
  %201 = load %"class.std::__1::__libcpp_compressed_pair_imp"*, %"class.std::__1::__libcpp_compressed_pair_imp"** %20, align 8, !dbg !5716
  %202 = bitcast %"class.std::__1::__libcpp_compressed_pair_imp"* %201 to %"class.std::__1::allocator"*, !dbg !5717
  store %"class.std::__1::allocator"* %202, %"class.std::__1::allocator"** %19, align 8, !dbg !5718
  %203 = load %"class.std::__1::allocator"*, %"class.std::__1::allocator"** %19, align 8, !dbg !5718
  %204 = getelementptr inbounds %"class.std::__1::__libcpp_compressed_pair_imp", %"class.std::__1::__libcpp_compressed_pair_imp"* %201, i32 0, i32 0, !dbg !5719
  %205 = bitcast %"struct.std::__1::basic_string<char, std::__1::char_traits<char>, std::__1::allocator<char> >::__rep"* %204 to i8*, !dbg !5719
  call void @llvm.memset.p0i8.i64(i8* %205, i8 0, i64 24, i32 8, i1 false) #10, !dbg !5719
  store %"class.std::__1::basic_string"* %195, %"class.std::__1::basic_string"** %16, align 8, !dbg !5720
  %206 = load %"class.std::__1::basic_string"*, %"class.std::__1::basic_string"** %16, align 8, !dbg !5720
  %207 = getelementptr inbounds %"class.std::__1::basic_string", %"class.std::__1::basic_string"* %206, i32 0, i32 0, !dbg !5721
  store %"class.std::__1::__compressed_pair"* %207, %"class.std::__1::__compressed_pair"** %15, align 8, !dbg !5722
  %208 = load %"class.std::__1::__compressed_pair"*, %"class.std::__1::__compressed_pair"** %15, align 8, !dbg !5722
  %209 = bitcast %"class.std::__1::__compressed_pair"* %208 to %"class.std::__1::__libcpp_compressed_pair_imp"*, !dbg !5723
  store %"class.std::__1::__libcpp_compressed_pair_imp"* %209, %"class.std::__1::__libcpp_compressed_pair_imp"** %14, align 8, !dbg !5723
  %210 = load %"class.std::__1::__libcpp_compressed_pair_imp"*, %"class.std::__1::__libcpp_compressed_pair_imp"** %14, align 8, !dbg !5723
  %211 = getelementptr inbounds %"class.std::__1::__libcpp_compressed_pair_imp", %"class.std::__1::__libcpp_compressed_pair_imp"* %210, i32 0, i32 0, !dbg !5724
  %212 = getelementptr inbounds %"struct.std::__1::basic_string<char, std::__1::char_traits<char>, std::__1::allocator<char> >::__rep", %"struct.std::__1::basic_string<char, std::__1::char_traits<char>, std::__1::allocator<char> >::__rep"* %211, i32 0, i32 0, !dbg !5725
  %213 = bitcast %union.anon* %212 to %"struct.std::__1::basic_string<char, std::__1::char_traits<char>, std::__1::allocator<char> >::__raw"*, !dbg !5725
  %214 = getelementptr inbounds %"struct.std::__1::basic_string<char, std::__1::char_traits<char>, std::__1::allocator<char> >::__raw", %"struct.std::__1::basic_string<char, std::__1::char_traits<char>, std::__1::allocator<char> >::__raw"* %213, i32 0, i32 0, !dbg !5726
  store [3 x i64]* %214, [3 x i64]** %17, align 8, !dbg !5588
  store i32 0, i32* %18, align 4, !dbg !5591
  br label %215, !dbg !5727

; <label>:215:                                    ; preds = %218, %190
  %216 = load i32, i32* %18, align 4, !dbg !5728
  %217 = icmp ult i32 %216, 3, !dbg !5729
  br i1 %217, label %218, label %225, !dbg !5730

; <label>:218:                                    ; preds = %215
  %219 = load i32, i32* %18, align 4, !dbg !5731
  %220 = zext i32 %219 to i64, !dbg !5732
  %221 = load [3 x i64]*, [3 x i64]** %17, align 8, !dbg !5732
  %222 = getelementptr inbounds [3 x i64], [3 x i64]* %221, i64 0, i64 %220, !dbg !5732
  store i64 0, i64* %222, align 8, !dbg !5733
  %223 = load i32, i32* %18, align 4, !dbg !5734
  %224 = add i32 %223, 1, !dbg !5734
  store i32 %224, i32* %18, align 4, !dbg !5734
  br label %215, !dbg !5735, !llvm.loop !5705

; <label>:225:                                    ; preds = %215
  call void @_ZNSt3__115basic_stringbufIcNS_11char_traitsIcEENS_9allocatorIcEEE3strERKNS_12basic_stringIcS2_S4_EE(%"class.std::__1::basic_stringbuf"* %155, %"class.std::__1::basic_string"* dereferenceable(24) %38) #10, !dbg !5736
  call void @_ZNSt3__112basic_stringIcNS_11char_traitsIcEENS_9allocatorIcEEED1Ev(%"class.std::__1::basic_string"* %38) #10, !dbg !5736
  %226 = load i32*, i32** %45, align 8, !dbg !5737
  %227 = icmp eq %"class.std::__1::basic_stringstream"* %46, null, !dbg !5738
  br i1 %227, label %232, label %228, !dbg !5738

; <label>:228:                                    ; preds = %225
  %229 = bitcast %"class.std::__1::basic_stringstream"* %46 to i8*, !dbg !5738
  %230 = getelementptr inbounds i8, i8* %229, i64 16, !dbg !5738
  %231 = bitcast i8* %230 to %"class.std::__1::basic_ostream"*, !dbg !5738
  br label %232, !dbg !5738

; <label>:232:                                    ; preds = %228, %225
  %233 = phi %"class.std::__1::basic_ostream"* [ %231, %228 ], [ null, %225 ], !dbg !5738
  call void @_ZN7testing8internal21UniversalTersePrinterIiE5PrintERKiPNSt3__113basic_ostreamIcNS5_11char_traitsIcEEEE(i32* dereferenceable(4) %226, %"class.std::__1::basic_ostream"* %233), !dbg !5739
  store %"class.std::__1::basic_stringstream"* %46, %"class.std::__1::basic_stringstream"** %3, align 8, !dbg !5740, !noalias !5741
  %234 = load %"class.std::__1::basic_stringstream"*, %"class.std::__1::basic_stringstream"** %3, align 8, !dbg !5740, !noalias !5741
  %235 = getelementptr inbounds %"class.std::__1::basic_stringstream", %"class.std::__1::basic_stringstream"* %234, i32 0, i32 1, !dbg !5744
  call void @_ZNKSt3__115basic_stringbufIcNS_11char_traitsIcEENS_9allocatorIcEEE3strEv(%"class.std::__1::basic_string"* sret %0, %"class.std::__1::basic_stringbuf"* %235) #10, !dbg !5745
  call void @_ZNSt3__118basic_stringstreamIcNS_11char_traitsIcEENS_9allocatorIcEEED1Ev(%"class.std::__1::basic_stringstream"* %46) #10, !dbg !5746
  ret void, !dbg !5746
}

; Function Attrs: nounwind ssp uwtable
define linkonce_odr void @_ZN7testing8internal21UniversalTersePrinterIiE5PrintERKiPNSt3__113basic_ostreamIcNS5_11char_traitsIcEEEE(i32* dereferenceable(4), %"class.std::__1::basic_ostream"*) #0 align 2 !dbg !5747 {
  %3 = alloca i32*, align 8
  %4 = alloca %"class.std::__1::basic_ostream"*, align 8
  store i32* %0, i32** %3, align 8
  call void @llvm.dbg.declare(metadata i32** %3, metadata !5751, metadata !3978), !dbg !5752
  store %"class.std::__1::basic_ostream"* %1, %"class.std::__1::basic_ostream"** %4, align 8
  call void @llvm.dbg.declare(metadata %"class.std::__1::basic_ostream"** %4, metadata !5753, metadata !3978), !dbg !5754
  %5 = load i32*, i32** %3, align 8, !dbg !5755
  %6 = load %"class.std::__1::basic_ostream"*, %"class.std::__1::basic_ostream"** %4, align 8, !dbg !5756
  call void @_ZN7testing8internal14UniversalPrintIiEEvRKT_PNSt3__113basic_ostreamIcNS5_11char_traitsIcEEEE(i32* dereferenceable(4) %5, %"class.std::__1::basic_ostream"* %6), !dbg !5757
  ret void, !dbg !5758
}

; Function Attrs: inlinehint nounwind ssp uwtable
define linkonce_odr void @_ZNSt3__118basic_stringstreamIcNS_11char_traitsIcEENS_9allocatorIcEEED1Ev(%"class.std::__1::basic_stringstream"*) unnamed_addr #3 align 2 !dbg !5759 {
  %2 = alloca %"class.std::__1::basic_stringstream"*, align 8
  store %"class.std::__1::basic_stringstream"* %0, %"class.std::__1::basic_stringstream"** %2, align 8
  call void @llvm.dbg.declare(metadata %"class.std::__1::basic_stringstream"** %2, metadata !5763, metadata !3978), !dbg !5764
  %3 = load %"class.std::__1::basic_stringstream"*, %"class.std::__1::basic_stringstream"** %2, align 8
  call void @_ZNSt3__118basic_stringstreamIcNS_11char_traitsIcEENS_9allocatorIcEEED2Ev(%"class.std::__1::basic_stringstream"* %3, i8** getelementptr inbounds ([10 x i8*], [10 x i8*]* @_ZTTNSt3__118basic_stringstreamIcNS_11char_traitsIcEENS_9allocatorIcEEEE, i64 0, i64 0)) #10, !dbg !5765
  %4 = bitcast %"class.std::__1::basic_stringstream"* %3 to i8*, !dbg !5765
  %5 = getelementptr inbounds i8, i8* %4, i64 128, !dbg !5765
  %6 = bitcast i8* %5 to %"class.std::__1::basic_ios"*, !dbg !5765
  call void @_ZNSt3__19basic_iosIcNS_11char_traitsIcEEED2Ev(%"class.std::__1::basic_ios"* %6) #10, !dbg !5765
  ret void, !dbg !5765
}

; Function Attrs: nounwind
declare void @_ZNSt3__114basic_iostreamIcNS_11char_traitsIcEEED1Ev(%"class.std::__1::basic_iostream"*) unnamed_addr #4

; Function Attrs: nounwind
declare void @_ZNSt3__114basic_iostreamIcNS_11char_traitsIcEEED0Ev(%"class.std::__1::basic_iostream"*) unnamed_addr #4

; Function Attrs: nounwind
declare void @_ZThn16_NSt3__114basic_iostreamIcNS_11char_traitsIcEEED1Ev(%"class.std::__1::basic_iostream"*) unnamed_addr #4

; Function Attrs: nounwind
declare void @_ZThn16_NSt3__114basic_iostreamIcNS_11char_traitsIcEEED0Ev(%"class.std::__1::basic_iostream"*) unnamed_addr #4

; Function Attrs: nounwind
declare void @_ZTv0_n24_NSt3__114basic_iostreamIcNS_11char_traitsIcEEED1Ev(%"class.std::__1::basic_iostream"*) unnamed_addr #4

; Function Attrs: nounwind
declare void @_ZTv0_n24_NSt3__114basic_iostreamIcNS_11char_traitsIcEEED0Ev(%"class.std::__1::basic_iostream"*) unnamed_addr #4

; Function Attrs: nounwind
declare void @_ZNSt3__113basic_istreamIcNS_11char_traitsIcEEED1Ev(%"class.std::__1::basic_istream"*) unnamed_addr #4

; Function Attrs: nounwind
declare void @_ZNSt3__113basic_istreamIcNS_11char_traitsIcEEED0Ev(%"class.std::__1::basic_istream"*) unnamed_addr #4

; Function Attrs: nounwind
declare void @_ZTv0_n24_NSt3__113basic_istreamIcNS_11char_traitsIcEEED1Ev(%"class.std::__1::basic_istream"*) unnamed_addr #4

; Function Attrs: nounwind
declare void @_ZTv0_n24_NSt3__113basic_istreamIcNS_11char_traitsIcEEED0Ev(%"class.std::__1::basic_istream"*) unnamed_addr #4

; Function Attrs: nounwind
declare void @_ZNSt3__113basic_ostreamIcNS_11char_traitsIcEEED1Ev(%"class.std::__1::basic_ostream"*) unnamed_addr #4

; Function Attrs: nounwind
declare void @_ZNSt3__113basic_ostreamIcNS_11char_traitsIcEEED0Ev(%"class.std::__1::basic_ostream"*) unnamed_addr #4

; Function Attrs: nounwind
declare void @_ZTv0_n24_NSt3__113basic_ostreamIcNS_11char_traitsIcEEED1Ev(%"class.std::__1::basic_ostream"*) unnamed_addr #4

; Function Attrs: nounwind
declare void @_ZTv0_n24_NSt3__113basic_ostreamIcNS_11char_traitsIcEEED0Ev(%"class.std::__1::basic_ostream"*) unnamed_addr #4

; Function Attrs: inlinehint nounwind ssp uwtable
define linkonce_odr void @_ZNSt3__118basic_stringstreamIcNS_11char_traitsIcEENS_9allocatorIcEEED0Ev(%"class.std::__1::basic_stringstream"*) unnamed_addr #3 align 2 !dbg !5766 {
  %2 = alloca %"class.std::__1::basic_stringstream"*, align 8
  store %"class.std::__1::basic_stringstream"* %0, %"class.std::__1::basic_stringstream"** %2, align 8
  call void @llvm.dbg.declare(metadata %"class.std::__1::basic_stringstream"** %2, metadata !5767, metadata !3978), !dbg !5768
  %3 = load %"class.std::__1::basic_stringstream"*, %"class.std::__1::basic_stringstream"** %2, align 8
  call void @_ZNSt3__118basic_stringstreamIcNS_11char_traitsIcEENS_9allocatorIcEEED1Ev(%"class.std::__1::basic_stringstream"* %3) #10, !dbg !5769
  %4 = bitcast %"class.std::__1::basic_stringstream"* %3 to i8*, !dbg !5769
  call void @_ZdlPv(i8* %4) #12, !dbg !5769
  ret void, !dbg !5769
}

; Function Attrs: nounwind ssp uwtable
define linkonce_odr void @_ZThn16_NSt3__118basic_stringstreamIcNS_11char_traitsIcEENS_9allocatorIcEEED1Ev(%"class.std::__1::basic_stringstream"*) unnamed_addr #0 align 2 !dbg !5770 {
  %2 = alloca %"class.std::__1::basic_stringstream"*, align 8
  store %"class.std::__1::basic_stringstream"* %0, %"class.std::__1::basic_stringstream"** %2, align 8
  call void @llvm.dbg.declare(metadata %"class.std::__1::basic_stringstream"** %2, metadata !5772, metadata !3978), !dbg !5773
  %3 = load %"class.std::__1::basic_stringstream"*, %"class.std::__1::basic_stringstream"** %2, align 8, !dbg !5774
  %4 = bitcast %"class.std::__1::basic_stringstream"* %3 to i8*, !dbg !5774
  %5 = getelementptr inbounds i8, i8* %4, i64 -16, !dbg !5774
  %6 = bitcast i8* %5 to %"class.std::__1::basic_stringstream"*, !dbg !5774
  tail call void @_ZNSt3__118basic_stringstreamIcNS_11char_traitsIcEENS_9allocatorIcEEED1Ev(%"class.std::__1::basic_stringstream"* %6) #10, !dbg !5774
  ret void, !dbg !5774
}

; Function Attrs: nounwind ssp uwtable
define linkonce_odr void @_ZThn16_NSt3__118basic_stringstreamIcNS_11char_traitsIcEENS_9allocatorIcEEED0Ev(%"class.std::__1::basic_stringstream"*) unnamed_addr #0 align 2 !dbg !5775 {
  %2 = alloca %"class.std::__1::basic_stringstream"*, align 8
  store %"class.std::__1::basic_stringstream"* %0, %"class.std::__1::basic_stringstream"** %2, align 8
  call void @llvm.dbg.declare(metadata %"class.std::__1::basic_stringstream"** %2, metadata !5776, metadata !3978), !dbg !5777
  %3 = load %"class.std::__1::basic_stringstream"*, %"class.std::__1::basic_stringstream"** %2, align 8, !dbg !5778
  %4 = bitcast %"class.std::__1::basic_stringstream"* %3 to i8*, !dbg !5778
  %5 = getelementptr inbounds i8, i8* %4, i64 -16, !dbg !5778
  %6 = bitcast i8* %5 to %"class.std::__1::basic_stringstream"*, !dbg !5778
  tail call void @_ZNSt3__118basic_stringstreamIcNS_11char_traitsIcEENS_9allocatorIcEEED0Ev(%"class.std::__1::basic_stringstream"* %6) #10, !dbg !5778
  ret void, !dbg !5778
}

; Function Attrs: nounwind ssp uwtable
define linkonce_odr void @_ZTv0_n24_NSt3__118basic_stringstreamIcNS_11char_traitsIcEENS_9allocatorIcEEED1Ev(%"class.std::__1::basic_stringstream"*) unnamed_addr #0 align 2 !dbg !5779 {
  %2 = alloca %"class.std::__1::basic_stringstream"*, align 8
  store %"class.std::__1::basic_stringstream"* %0, %"class.std::__1::basic_stringstream"** %2, align 8
  call void @llvm.dbg.declare(metadata %"class.std::__1::basic_stringstream"** %2, metadata !5780, metadata !3978), !dbg !5781
  %3 = load %"class.std::__1::basic_stringstream"*, %"class.std::__1::basic_stringstream"** %2, align 8, !dbg !5782
  %4 = bitcast %"class.std::__1::basic_stringstream"* %3 to i8*, !dbg !5782
  %5 = bitcast i8* %4 to i8**, !dbg !5782
  %6 = load i8*, i8** %5, align 8, !dbg !5782
  %7 = getelementptr inbounds i8, i8* %6, i64 -24, !dbg !5782
  %8 = bitcast i8* %7 to i64*, !dbg !5782
  %9 = load i64, i64* %8, align 8, !dbg !5782
  %10 = getelementptr inbounds i8, i8* %4, i64 %9, !dbg !5782
  %11 = bitcast i8* %10 to %"class.std::__1::basic_stringstream"*, !dbg !5782
  tail call void @_ZNSt3__118basic_stringstreamIcNS_11char_traitsIcEENS_9allocatorIcEEED1Ev(%"class.std::__1::basic_stringstream"* %11) #10, !dbg !5782
  ret void, !dbg !5782
}

; Function Attrs: nounwind ssp uwtable
define linkonce_odr void @_ZTv0_n24_NSt3__118basic_stringstreamIcNS_11char_traitsIcEENS_9allocatorIcEEED0Ev(%"class.std::__1::basic_stringstream"*) unnamed_addr #0 align 2 !dbg !5783 {
  %2 = alloca %"class.std::__1::basic_stringstream"*, align 8
  store %"class.std::__1::basic_stringstream"* %0, %"class.std::__1::basic_stringstream"** %2, align 8
  call void @llvm.dbg.declare(metadata %"class.std::__1::basic_stringstream"** %2, metadata !5784, metadata !3978), !dbg !5785
  %3 = load %"class.std::__1::basic_stringstream"*, %"class.std::__1::basic_stringstream"** %2, align 8, !dbg !5786
  %4 = bitcast %"class.std::__1::basic_stringstream"* %3 to i8*, !dbg !5786
  %5 = bitcast i8* %4 to i8**, !dbg !5786
  %6 = load i8*, i8** %5, align 8, !dbg !5786
  %7 = getelementptr inbounds i8, i8* %6, i64 -24, !dbg !5786
  %8 = bitcast i8* %7 to i64*, !dbg !5786
  %9 = load i64, i64* %8, align 8, !dbg !5786
  %10 = getelementptr inbounds i8, i8* %4, i64 %9, !dbg !5786
  %11 = bitcast i8* %10 to %"class.std::__1::basic_stringstream"*, !dbg !5786
  tail call void @_ZNSt3__118basic_stringstreamIcNS_11char_traitsIcEENS_9allocatorIcEEED0Ev(%"class.std::__1::basic_stringstream"* %11) #10, !dbg !5786
  ret void, !dbg !5786
}

declare void @_ZNSt3__18ios_base4initEPv(%"class.std::__1::ios_base"*, i8*) #1

; Function Attrs: inlinehint nounwind ssp uwtable
define linkonce_odr i32 @_ZNSt3__111char_traitsIcE3eofEv() #3 align 2 !dbg !5787 {
  ret i32 -1, !dbg !5788
}

declare void @_ZNSt3__115basic_streambufIcNS_11char_traitsIcEEEC2Ev(%"class.std::__1::basic_streambuf"*) unnamed_addr #1

; Function Attrs: nounwind ssp uwtable
define linkonce_odr void @_ZNSt3__115basic_stringbufIcNS_11char_traitsIcEENS_9allocatorIcEEE3strERKNS_12basic_stringIcS2_S4_EE(%"class.std::__1::basic_stringbuf"*, %"class.std::__1::basic_string"* dereferenceable(24)) #0 align 2 !dbg !5789 {
  %3 = alloca i8*, align 8
  call void @llvm.dbg.declare(metadata i8** %3, metadata !5242, metadata !3978), !dbg !5790
  %4 = alloca %"class.std::__1::__libcpp_compressed_pair_imp"*, align 8
  call void @llvm.dbg.declare(metadata %"class.std::__1::__libcpp_compressed_pair_imp"** %4, metadata !5254, metadata !3978), !dbg !5795
  %5 = alloca %"class.std::__1::__compressed_pair"*, align 8
  call void @llvm.dbg.declare(metadata %"class.std::__1::__compressed_pair"** %5, metadata !5265, metadata !3978), !dbg !5800
  %6 = alloca %"class.std::__1::basic_string"*, align 8
  call void @llvm.dbg.declare(metadata %"class.std::__1::basic_string"** %6, metadata !5268, metadata !3978), !dbg !5801
  %7 = alloca i8*, align 8
  call void @llvm.dbg.declare(metadata i8** %7, metadata !5270, metadata !3978), !dbg !5802
  %8 = alloca i8*, align 8
  call void @llvm.dbg.declare(metadata i8** %8, metadata !5295, metadata !3978), !dbg !5806
  %9 = alloca %"class.std::__1::__libcpp_compressed_pair_imp"*, align 8
  call void @llvm.dbg.declare(metadata %"class.std::__1::__libcpp_compressed_pair_imp"** %9, metadata !5254, metadata !3978), !dbg !5807
  %10 = alloca %"class.std::__1::__compressed_pair"*, align 8
  call void @llvm.dbg.declare(metadata %"class.std::__1::__compressed_pair"** %10, metadata !5265, metadata !3978), !dbg !5810
  %11 = alloca %"class.std::__1::basic_string"*, align 8
  call void @llvm.dbg.declare(metadata %"class.std::__1::basic_string"** %11, metadata !5301, metadata !3978), !dbg !5811
  %12 = alloca %"class.std::__1::__libcpp_compressed_pair_imp"*, align 8
  call void @llvm.dbg.declare(metadata %"class.std::__1::__libcpp_compressed_pair_imp"** %12, metadata !5254, metadata !3978), !dbg !5812
  %13 = alloca %"class.std::__1::__compressed_pair"*, align 8
  call void @llvm.dbg.declare(metadata %"class.std::__1::__compressed_pair"** %13, metadata !5265, metadata !3978), !dbg !5816
  %14 = alloca %"class.std::__1::basic_string"*, align 8
  call void @llvm.dbg.declare(metadata %"class.std::__1::basic_string"** %14, metadata !5309, metadata !3978), !dbg !5817
  %15 = alloca %"class.std::__1::basic_string"*, align 8
  call void @llvm.dbg.declare(metadata %"class.std::__1::basic_string"** %15, metadata !5311, metadata !3978), !dbg !5818
  %16 = alloca %"class.std::__1::basic_string"*, align 8
  call void @llvm.dbg.declare(metadata %"class.std::__1::basic_string"** %16, metadata !5313, metadata !3978), !dbg !5819
  %17 = alloca i8*, align 8
  call void @llvm.dbg.declare(metadata i8** %17, metadata !5242, metadata !3978), !dbg !5820
  %18 = alloca %"class.std::__1::__libcpp_compressed_pair_imp"*, align 8
  call void @llvm.dbg.declare(metadata %"class.std::__1::__libcpp_compressed_pair_imp"** %18, metadata !5254, metadata !3978), !dbg !5823
  %19 = alloca %"class.std::__1::__compressed_pair"*, align 8
  call void @llvm.dbg.declare(metadata %"class.std::__1::__compressed_pair"** %19, metadata !5265, metadata !3978), !dbg !5828
  %20 = alloca %"class.std::__1::basic_string"*, align 8
  call void @llvm.dbg.declare(metadata %"class.std::__1::basic_string"** %20, metadata !5268, metadata !3978), !dbg !5829
  %21 = alloca i8*, align 8
  call void @llvm.dbg.declare(metadata i8** %21, metadata !5270, metadata !3978), !dbg !5830
  %22 = alloca i8*, align 8
  call void @llvm.dbg.declare(metadata i8** %22, metadata !5295, metadata !3978), !dbg !5834
  %23 = alloca %"class.std::__1::__libcpp_compressed_pair_imp"*, align 8
  call void @llvm.dbg.declare(metadata %"class.std::__1::__libcpp_compressed_pair_imp"** %23, metadata !5254, metadata !3978), !dbg !5835
  %24 = alloca %"class.std::__1::__compressed_pair"*, align 8
  call void @llvm.dbg.declare(metadata %"class.std::__1::__compressed_pair"** %24, metadata !5265, metadata !3978), !dbg !5838
  %25 = alloca %"class.std::__1::basic_string"*, align 8
  call void @llvm.dbg.declare(metadata %"class.std::__1::basic_string"** %25, metadata !5301, metadata !3978), !dbg !5839
  %26 = alloca %"class.std::__1::__libcpp_compressed_pair_imp"*, align 8
  call void @llvm.dbg.declare(metadata %"class.std::__1::__libcpp_compressed_pair_imp"** %26, metadata !5254, metadata !3978), !dbg !5840
  %27 = alloca %"class.std::__1::__compressed_pair"*, align 8
  call void @llvm.dbg.declare(metadata %"class.std::__1::__compressed_pair"** %27, metadata !5265, metadata !3978), !dbg !5844
  %28 = alloca %"class.std::__1::basic_string"*, align 8
  call void @llvm.dbg.declare(metadata %"class.std::__1::basic_string"** %28, metadata !5309, metadata !3978), !dbg !5845
  %29 = alloca %"class.std::__1::basic_string"*, align 8
  call void @llvm.dbg.declare(metadata %"class.std::__1::basic_string"** %29, metadata !5311, metadata !3978), !dbg !5846
  %30 = alloca %"class.std::__1::basic_string"*, align 8
  call void @llvm.dbg.declare(metadata %"class.std::__1::basic_string"** %30, metadata !5313, metadata !3978), !dbg !5847
  %31 = alloca %"class.std::__1::basic_streambuf"*, align 8
  call void @llvm.dbg.declare(metadata %"class.std::__1::basic_streambuf"** %31, metadata !5848, metadata !3978), !dbg !5850
  %32 = alloca i8*, align 8
  call void @llvm.dbg.declare(metadata i8** %32, metadata !5852, metadata !3978), !dbg !5853
  %33 = alloca i8*, align 8
  call void @llvm.dbg.declare(metadata i8** %33, metadata !5854, metadata !3978), !dbg !5855
  %34 = alloca i8*, align 8
  call void @llvm.dbg.declare(metadata i8** %34, metadata !5856, metadata !3978), !dbg !5857
  %35 = alloca %"class.std::__1::__libcpp_compressed_pair_imp"*, align 8
  call void @llvm.dbg.declare(metadata %"class.std::__1::__libcpp_compressed_pair_imp"** %35, metadata !5254, metadata !3978), !dbg !5858
  %36 = alloca %"class.std::__1::__compressed_pair"*, align 8
  call void @llvm.dbg.declare(metadata %"class.std::__1::__compressed_pair"** %36, metadata !5265, metadata !3978), !dbg !5867
  %37 = alloca %"class.std::__1::basic_string"*, align 8
  call void @llvm.dbg.declare(metadata %"class.std::__1::basic_string"** %37, metadata !5868, metadata !3978), !dbg !5869
  %38 = alloca %"class.std::__1::__libcpp_compressed_pair_imp"*, align 8
  call void @llvm.dbg.declare(metadata %"class.std::__1::__libcpp_compressed_pair_imp"** %38, metadata !5254, metadata !3978), !dbg !5870
  %39 = alloca %"class.std::__1::__compressed_pair"*, align 8
  call void @llvm.dbg.declare(metadata %"class.std::__1::__compressed_pair"** %39, metadata !5265, metadata !3978), !dbg !5875
  %40 = alloca %"class.std::__1::basic_string"*, align 8
  call void @llvm.dbg.declare(metadata %"class.std::__1::basic_string"** %40, metadata !5876, metadata !3978), !dbg !5877
  %41 = alloca %"class.std::__1::__libcpp_compressed_pair_imp"*, align 8
  call void @llvm.dbg.declare(metadata %"class.std::__1::__libcpp_compressed_pair_imp"** %41, metadata !5254, metadata !3978), !dbg !5878
  %42 = alloca %"class.std::__1::__compressed_pair"*, align 8
  call void @llvm.dbg.declare(metadata %"class.std::__1::__compressed_pair"** %42, metadata !5265, metadata !3978), !dbg !5882
  %43 = alloca %"class.std::__1::basic_string"*, align 8
  call void @llvm.dbg.declare(metadata %"class.std::__1::basic_string"** %43, metadata !5309, metadata !3978), !dbg !5883
  %44 = alloca %"class.std::__1::basic_string"*, align 8
  call void @llvm.dbg.declare(metadata %"class.std::__1::basic_string"** %44, metadata !5884, metadata !3978), !dbg !5885
  %45 = alloca i8*, align 8
  call void @llvm.dbg.declare(metadata i8** %45, metadata !5242, metadata !3978), !dbg !5886
  %46 = alloca %"class.std::__1::__libcpp_compressed_pair_imp"*, align 8
  call void @llvm.dbg.declare(metadata %"class.std::__1::__libcpp_compressed_pair_imp"** %46, metadata !5254, metadata !3978), !dbg !5889
  %47 = alloca %"class.std::__1::__compressed_pair"*, align 8
  call void @llvm.dbg.declare(metadata %"class.std::__1::__compressed_pair"** %47, metadata !5265, metadata !3978), !dbg !5894
  %48 = alloca %"class.std::__1::basic_string"*, align 8
  call void @llvm.dbg.declare(metadata %"class.std::__1::basic_string"** %48, metadata !5268, metadata !3978), !dbg !5895
  %49 = alloca i8*, align 8
  call void @llvm.dbg.declare(metadata i8** %49, metadata !5270, metadata !3978), !dbg !5896
  %50 = alloca i8*, align 8
  call void @llvm.dbg.declare(metadata i8** %50, metadata !5295, metadata !3978), !dbg !5900
  %51 = alloca %"class.std::__1::__libcpp_compressed_pair_imp"*, align 8
  call void @llvm.dbg.declare(metadata %"class.std::__1::__libcpp_compressed_pair_imp"** %51, metadata !5254, metadata !3978), !dbg !5901
  %52 = alloca %"class.std::__1::__compressed_pair"*, align 8
  call void @llvm.dbg.declare(metadata %"class.std::__1::__compressed_pair"** %52, metadata !5265, metadata !3978), !dbg !5904
  %53 = alloca %"class.std::__1::basic_string"*, align 8
  call void @llvm.dbg.declare(metadata %"class.std::__1::basic_string"** %53, metadata !5301, metadata !3978), !dbg !5905
  %54 = alloca %"class.std::__1::__libcpp_compressed_pair_imp"*, align 8
  call void @llvm.dbg.declare(metadata %"class.std::__1::__libcpp_compressed_pair_imp"** %54, metadata !5254, metadata !3978), !dbg !5906
  %55 = alloca %"class.std::__1::__compressed_pair"*, align 8
  call void @llvm.dbg.declare(metadata %"class.std::__1::__compressed_pair"** %55, metadata !5265, metadata !3978), !dbg !5910
  %56 = alloca %"class.std::__1::basic_string"*, align 8
  call void @llvm.dbg.declare(metadata %"class.std::__1::basic_string"** %56, metadata !5309, metadata !3978), !dbg !5911
  %57 = alloca %"class.std::__1::basic_string"*, align 8
  call void @llvm.dbg.declare(metadata %"class.std::__1::basic_string"** %57, metadata !5311, metadata !3978), !dbg !5912
  %58 = alloca %"class.std::__1::basic_string"*, align 8
  call void @llvm.dbg.declare(metadata %"class.std::__1::basic_string"** %58, metadata !5313, metadata !3978), !dbg !5913
  %59 = alloca %"class.std::__1::__libcpp_compressed_pair_imp"*, align 8
  call void @llvm.dbg.declare(metadata %"class.std::__1::__libcpp_compressed_pair_imp"** %59, metadata !5254, metadata !3978), !dbg !5914
  %60 = alloca %"class.std::__1::__compressed_pair"*, align 8
  call void @llvm.dbg.declare(metadata %"class.std::__1::__compressed_pair"** %60, metadata !5265, metadata !3978), !dbg !5921
  %61 = alloca %"class.std::__1::basic_string"*, align 8
  call void @llvm.dbg.declare(metadata %"class.std::__1::basic_string"** %61, metadata !5922, metadata !3978), !dbg !5923
  %62 = alloca %"class.std::__1::__libcpp_compressed_pair_imp"*, align 8
  call void @llvm.dbg.declare(metadata %"class.std::__1::__libcpp_compressed_pair_imp"** %62, metadata !5254, metadata !3978), !dbg !5924
  %63 = alloca %"class.std::__1::__compressed_pair"*, align 8
  call void @llvm.dbg.declare(metadata %"class.std::__1::__compressed_pair"** %63, metadata !5265, metadata !3978), !dbg !5928
  %64 = alloca %"class.std::__1::basic_string"*, align 8
  call void @llvm.dbg.declare(metadata %"class.std::__1::basic_string"** %64, metadata !5309, metadata !3978), !dbg !5929
  %65 = alloca %"class.std::__1::basic_string"*, align 8
  call void @llvm.dbg.declare(metadata %"class.std::__1::basic_string"** %65, metadata !5930, metadata !3978), !dbg !5931
  %66 = alloca %"class.std::__1::__libcpp_compressed_pair_imp"*, align 8
  call void @llvm.dbg.declare(metadata %"class.std::__1::__libcpp_compressed_pair_imp"** %66, metadata !5254, metadata !3978), !dbg !5932
  %67 = alloca %"class.std::__1::__compressed_pair"*, align 8
  call void @llvm.dbg.declare(metadata %"class.std::__1::__compressed_pair"** %67, metadata !5265, metadata !3978), !dbg !5937
  %68 = alloca %"class.std::__1::basic_string"*, align 8
  call void @llvm.dbg.declare(metadata %"class.std::__1::basic_string"** %68, metadata !5868, metadata !3978), !dbg !5938
  %69 = alloca %"class.std::__1::__libcpp_compressed_pair_imp"*, align 8
  call void @llvm.dbg.declare(metadata %"class.std::__1::__libcpp_compressed_pair_imp"** %69, metadata !5254, metadata !3978), !dbg !5939
  %70 = alloca %"class.std::__1::__compressed_pair"*, align 8
  call void @llvm.dbg.declare(metadata %"class.std::__1::__compressed_pair"** %70, metadata !5265, metadata !3978), !dbg !5943
  %71 = alloca %"class.std::__1::basic_string"*, align 8
  call void @llvm.dbg.declare(metadata %"class.std::__1::basic_string"** %71, metadata !5876, metadata !3978), !dbg !5944
  %72 = alloca %"class.std::__1::__libcpp_compressed_pair_imp"*, align 8
  call void @llvm.dbg.declare(metadata %"class.std::__1::__libcpp_compressed_pair_imp"** %72, metadata !5254, metadata !3978), !dbg !5945
  %73 = alloca %"class.std::__1::__compressed_pair"*, align 8
  call void @llvm.dbg.declare(metadata %"class.std::__1::__compressed_pair"** %73, metadata !5265, metadata !3978), !dbg !5949
  %74 = alloca %"class.std::__1::basic_string"*, align 8
  call void @llvm.dbg.declare(metadata %"class.std::__1::basic_string"** %74, metadata !5309, metadata !3978), !dbg !5950
  %75 = alloca %"class.std::__1::basic_string"*, align 8
  call void @llvm.dbg.declare(metadata %"class.std::__1::basic_string"** %75, metadata !5884, metadata !3978), !dbg !5951
  %76 = alloca %"class.std::__1::basic_string"*, align 8
  call void @llvm.dbg.declare(metadata %"class.std::__1::basic_string"** %76, metadata !5952, metadata !3978), !dbg !5954
  %77 = alloca i64, align 8
  call void @llvm.dbg.declare(metadata i64* %77, metadata !5956, metadata !3978), !dbg !5957
  %78 = alloca i8*, align 8
  call void @llvm.dbg.declare(metadata i8** %78, metadata !5242, metadata !3978), !dbg !5958
  %79 = alloca %"class.std::__1::__libcpp_compressed_pair_imp"*, align 8
  call void @llvm.dbg.declare(metadata %"class.std::__1::__libcpp_compressed_pair_imp"** %79, metadata !5254, metadata !3978), !dbg !5961
  %80 = alloca %"class.std::__1::__compressed_pair"*, align 8
  call void @llvm.dbg.declare(metadata %"class.std::__1::__compressed_pair"** %80, metadata !5265, metadata !3978), !dbg !5966
  %81 = alloca %"class.std::__1::basic_string"*, align 8
  call void @llvm.dbg.declare(metadata %"class.std::__1::basic_string"** %81, metadata !5268, metadata !3978), !dbg !5967
  %82 = alloca i8*, align 8
  call void @llvm.dbg.declare(metadata i8** %82, metadata !5270, metadata !3978), !dbg !5968
  %83 = alloca i8*, align 8
  call void @llvm.dbg.declare(metadata i8** %83, metadata !5295, metadata !3978), !dbg !5972
  %84 = alloca %"class.std::__1::__libcpp_compressed_pair_imp"*, align 8
  call void @llvm.dbg.declare(metadata %"class.std::__1::__libcpp_compressed_pair_imp"** %84, metadata !5254, metadata !3978), !dbg !5973
  %85 = alloca %"class.std::__1::__compressed_pair"*, align 8
  call void @llvm.dbg.declare(metadata %"class.std::__1::__compressed_pair"** %85, metadata !5265, metadata !3978), !dbg !5976
  %86 = alloca %"class.std::__1::basic_string"*, align 8
  call void @llvm.dbg.declare(metadata %"class.std::__1::basic_string"** %86, metadata !5301, metadata !3978), !dbg !5977
  %87 = alloca %"class.std::__1::__libcpp_compressed_pair_imp"*, align 8
  call void @llvm.dbg.declare(metadata %"class.std::__1::__libcpp_compressed_pair_imp"** %87, metadata !5254, metadata !3978), !dbg !5978
  %88 = alloca %"class.std::__1::__compressed_pair"*, align 8
  call void @llvm.dbg.declare(metadata %"class.std::__1::__compressed_pair"** %88, metadata !5265, metadata !3978), !dbg !5982
  %89 = alloca %"class.std::__1::basic_string"*, align 8
  call void @llvm.dbg.declare(metadata %"class.std::__1::basic_string"** %89, metadata !5309, metadata !3978), !dbg !5983
  %90 = alloca %"class.std::__1::basic_string"*, align 8
  call void @llvm.dbg.declare(metadata %"class.std::__1::basic_string"** %90, metadata !5311, metadata !3978), !dbg !5984
  %91 = alloca %"class.std::__1::basic_string"*, align 8
  call void @llvm.dbg.declare(metadata %"class.std::__1::basic_string"** %91, metadata !5313, metadata !3978), !dbg !5985
  %92 = alloca i8*, align 8
  call void @llvm.dbg.declare(metadata i8** %92, metadata !5242, metadata !3978), !dbg !5986
  %93 = alloca %"class.std::__1::__libcpp_compressed_pair_imp"*, align 8
  call void @llvm.dbg.declare(metadata %"class.std::__1::__libcpp_compressed_pair_imp"** %93, metadata !5254, metadata !3978), !dbg !5989
  %94 = alloca %"class.std::__1::__compressed_pair"*, align 8
  call void @llvm.dbg.declare(metadata %"class.std::__1::__compressed_pair"** %94, metadata !5265, metadata !3978), !dbg !5994
  %95 = alloca %"class.std::__1::basic_string"*, align 8
  call void @llvm.dbg.declare(metadata %"class.std::__1::basic_string"** %95, metadata !5268, metadata !3978), !dbg !5995
  %96 = alloca i8*, align 8
  call void @llvm.dbg.declare(metadata i8** %96, metadata !5270, metadata !3978), !dbg !5996
  %97 = alloca i8*, align 8
  call void @llvm.dbg.declare(metadata i8** %97, metadata !5295, metadata !3978), !dbg !6000
  %98 = alloca %"class.std::__1::__libcpp_compressed_pair_imp"*, align 8
  call void @llvm.dbg.declare(metadata %"class.std::__1::__libcpp_compressed_pair_imp"** %98, metadata !5254, metadata !3978), !dbg !6001
  %99 = alloca %"class.std::__1::__compressed_pair"*, align 8
  call void @llvm.dbg.declare(metadata %"class.std::__1::__compressed_pair"** %99, metadata !5265, metadata !3978), !dbg !6004
  %100 = alloca %"class.std::__1::basic_string"*, align 8
  call void @llvm.dbg.declare(metadata %"class.std::__1::basic_string"** %100, metadata !5301, metadata !3978), !dbg !6005
  %101 = alloca %"class.std::__1::__libcpp_compressed_pair_imp"*, align 8
  call void @llvm.dbg.declare(metadata %"class.std::__1::__libcpp_compressed_pair_imp"** %101, metadata !5254, metadata !3978), !dbg !6006
  %102 = alloca %"class.std::__1::__compressed_pair"*, align 8
  call void @llvm.dbg.declare(metadata %"class.std::__1::__compressed_pair"** %102, metadata !5265, metadata !3978), !dbg !6010
  %103 = alloca %"class.std::__1::basic_string"*, align 8
  call void @llvm.dbg.declare(metadata %"class.std::__1::basic_string"** %103, metadata !5309, metadata !3978), !dbg !6011
  %104 = alloca %"class.std::__1::basic_string"*, align 8
  call void @llvm.dbg.declare(metadata %"class.std::__1::basic_string"** %104, metadata !5311, metadata !3978), !dbg !6012
  %105 = alloca %"class.std::__1::basic_string"*, align 8
  call void @llvm.dbg.declare(metadata %"class.std::__1::basic_string"** %105, metadata !5313, metadata !3978), !dbg !6013
  %106 = alloca %"class.std::__1::__libcpp_compressed_pair_imp"*, align 8
  call void @llvm.dbg.declare(metadata %"class.std::__1::__libcpp_compressed_pair_imp"** %106, metadata !5254, metadata !3978), !dbg !6014
  %107 = alloca %"class.std::__1::__compressed_pair"*, align 8
  call void @llvm.dbg.declare(metadata %"class.std::__1::__compressed_pair"** %107, metadata !5265, metadata !3978), !dbg !6019
  %108 = alloca %"class.std::__1::basic_string"*, align 8
  call void @llvm.dbg.declare(metadata %"class.std::__1::basic_string"** %108, metadata !5868, metadata !3978), !dbg !6020
  %109 = alloca %"class.std::__1::__libcpp_compressed_pair_imp"*, align 8
  call void @llvm.dbg.declare(metadata %"class.std::__1::__libcpp_compressed_pair_imp"** %109, metadata !5254, metadata !3978), !dbg !6021
  %110 = alloca %"class.std::__1::__compressed_pair"*, align 8
  call void @llvm.dbg.declare(metadata %"class.std::__1::__compressed_pair"** %110, metadata !5265, metadata !3978), !dbg !6025
  %111 = alloca %"class.std::__1::basic_string"*, align 8
  call void @llvm.dbg.declare(metadata %"class.std::__1::basic_string"** %111, metadata !5876, metadata !3978), !dbg !6026
  %112 = alloca %"class.std::__1::__libcpp_compressed_pair_imp"*, align 8
  call void @llvm.dbg.declare(metadata %"class.std::__1::__libcpp_compressed_pair_imp"** %112, metadata !5254, metadata !3978), !dbg !6027
  %113 = alloca %"class.std::__1::__compressed_pair"*, align 8
  call void @llvm.dbg.declare(metadata %"class.std::__1::__compressed_pair"** %113, metadata !5265, metadata !3978), !dbg !6031
  %114 = alloca %"class.std::__1::basic_string"*, align 8
  call void @llvm.dbg.declare(metadata %"class.std::__1::basic_string"** %114, metadata !5309, metadata !3978), !dbg !6032
  %115 = alloca %"class.std::__1::basic_string"*, align 8
  call void @llvm.dbg.declare(metadata %"class.std::__1::basic_string"** %115, metadata !5884, metadata !3978), !dbg !6033
  %116 = alloca %"class.std::__1::basic_streambuf"*, align 8
  call void @llvm.dbg.declare(metadata %"class.std::__1::basic_streambuf"** %116, metadata !6034, metadata !3978), !dbg !6036
  %117 = alloca i8*, align 8
  call void @llvm.dbg.declare(metadata i8** %117, metadata !6038, metadata !3978), !dbg !6039
  %118 = alloca i8*, align 8
  call void @llvm.dbg.declare(metadata i8** %118, metadata !6040, metadata !3978), !dbg !6041
  %119 = alloca %"class.std::__1::basic_streambuf"*, align 8
  call void @llvm.dbg.declare(metadata %"class.std::__1::basic_streambuf"** %119, metadata !6042, metadata !3978), !dbg !6044
  %120 = alloca i32, align 4
  call void @llvm.dbg.declare(metadata i32* %120, metadata !6047, metadata !3978), !dbg !6048
  %121 = alloca i8*, align 8
  call void @llvm.dbg.declare(metadata i8** %121, metadata !5242, metadata !3978), !dbg !6049
  %122 = alloca %"class.std::__1::__libcpp_compressed_pair_imp"*, align 8
  call void @llvm.dbg.declare(metadata %"class.std::__1::__libcpp_compressed_pair_imp"** %122, metadata !5254, metadata !3978), !dbg !6052
  %123 = alloca %"class.std::__1::__compressed_pair"*, align 8
  call void @llvm.dbg.declare(metadata %"class.std::__1::__compressed_pair"** %123, metadata !5265, metadata !3978), !dbg !6057
  %124 = alloca %"class.std::__1::basic_string"*, align 8
  call void @llvm.dbg.declare(metadata %"class.std::__1::basic_string"** %124, metadata !5268, metadata !3978), !dbg !6058
  %125 = alloca i8*, align 8
  call void @llvm.dbg.declare(metadata i8** %125, metadata !5270, metadata !3978), !dbg !6059
  %126 = alloca i8*, align 8
  call void @llvm.dbg.declare(metadata i8** %126, metadata !5295, metadata !3978), !dbg !6063
  %127 = alloca %"class.std::__1::__libcpp_compressed_pair_imp"*, align 8
  call void @llvm.dbg.declare(metadata %"class.std::__1::__libcpp_compressed_pair_imp"** %127, metadata !5254, metadata !3978), !dbg !6064
  %128 = alloca %"class.std::__1::__compressed_pair"*, align 8
  call void @llvm.dbg.declare(metadata %"class.std::__1::__compressed_pair"** %128, metadata !5265, metadata !3978), !dbg !6067
  %129 = alloca %"class.std::__1::basic_string"*, align 8
  call void @llvm.dbg.declare(metadata %"class.std::__1::basic_string"** %129, metadata !5301, metadata !3978), !dbg !6068
  %130 = alloca %"class.std::__1::__libcpp_compressed_pair_imp"*, align 8
  call void @llvm.dbg.declare(metadata %"class.std::__1::__libcpp_compressed_pair_imp"** %130, metadata !5254, metadata !3978), !dbg !6069
  %131 = alloca %"class.std::__1::__compressed_pair"*, align 8
  call void @llvm.dbg.declare(metadata %"class.std::__1::__compressed_pair"** %131, metadata !5265, metadata !3978), !dbg !6073
  %132 = alloca %"class.std::__1::basic_string"*, align 8
  call void @llvm.dbg.declare(metadata %"class.std::__1::basic_string"** %132, metadata !5309, metadata !3978), !dbg !6074
  %133 = alloca %"class.std::__1::basic_string"*, align 8
  call void @llvm.dbg.declare(metadata %"class.std::__1::basic_string"** %133, metadata !5311, metadata !3978), !dbg !6075
  %134 = alloca %"class.std::__1::basic_string"*, align 8
  call void @llvm.dbg.declare(metadata %"class.std::__1::basic_string"** %134, metadata !5313, metadata !3978), !dbg !6076
  %135 = alloca %"class.std::__1::basic_stringbuf"*, align 8
  %136 = alloca %"class.std::__1::basic_string"*, align 8
  %137 = alloca i64, align 8
  store %"class.std::__1::basic_stringbuf"* %0, %"class.std::__1::basic_stringbuf"** %135, align 8
  call void @llvm.dbg.declare(metadata %"class.std::__1::basic_stringbuf"** %135, metadata !6077, metadata !3978), !dbg !6078
  store %"class.std::__1::basic_string"* %1, %"class.std::__1::basic_string"** %136, align 8
  call void @llvm.dbg.declare(metadata %"class.std::__1::basic_string"** %136, metadata !6079, metadata !3978), !dbg !6080
  %138 = load %"class.std::__1::basic_stringbuf"*, %"class.std::__1::basic_stringbuf"** %135, align 8
  %139 = getelementptr inbounds %"class.std::__1::basic_stringbuf", %"class.std::__1::basic_stringbuf"* %138, i32 0, i32 1, !dbg !6081
  %140 = load %"class.std::__1::basic_string"*, %"class.std::__1::basic_string"** %136, align 8, !dbg !6082
  %141 = call dereferenceable(24) %"class.std::__1::basic_string"* @_ZNSt3__112basic_stringIcNS_11char_traitsIcEENS_9allocatorIcEEEaSERKS5_(%"class.std::__1::basic_string"* %139, %"class.std::__1::basic_string"* dereferenceable(24) %140), !dbg !6083
  %142 = getelementptr inbounds %"class.std::__1::basic_stringbuf", %"class.std::__1::basic_stringbuf"* %138, i32 0, i32 2, !dbg !6084
  store i8* null, i8** %142, align 8, !dbg !6085
  %143 = getelementptr inbounds %"class.std::__1::basic_stringbuf", %"class.std::__1::basic_stringbuf"* %138, i32 0, i32 3, !dbg !6086
  %144 = load i32, i32* %143, align 8, !dbg !6086
  %145 = and i32 %144, 8, !dbg !6087
  %146 = icmp ne i32 %145, 0, !dbg !6086
  br i1 %146, label %147, label %336, !dbg !6088

; <label>:147:                                    ; preds = %2
  %148 = getelementptr inbounds %"class.std::__1::basic_stringbuf", %"class.std::__1::basic_stringbuf"* %138, i32 0, i32 1, !dbg !6089
  store %"class.std::__1::basic_string"* %148, %"class.std::__1::basic_string"** %134, align 8, !dbg !6090
  %149 = load %"class.std::__1::basic_string"*, %"class.std::__1::basic_string"** %134, align 8, !dbg !6090
  store %"class.std::__1::basic_string"* %149, %"class.std::__1::basic_string"** %133, align 8, !dbg !6091
  %150 = load %"class.std::__1::basic_string"*, %"class.std::__1::basic_string"** %133, align 8, !dbg !6091
  store %"class.std::__1::basic_string"* %150, %"class.std::__1::basic_string"** %132, align 8, !dbg !6092
  %151 = load %"class.std::__1::basic_string"*, %"class.std::__1::basic_string"** %132, align 8, !dbg !6092
  %152 = getelementptr inbounds %"class.std::__1::basic_string", %"class.std::__1::basic_string"* %151, i32 0, i32 0, !dbg !6093
  store %"class.std::__1::__compressed_pair"* %152, %"class.std::__1::__compressed_pair"** %131, align 8, !dbg !6094
  %153 = load %"class.std::__1::__compressed_pair"*, %"class.std::__1::__compressed_pair"** %131, align 8, !dbg !6094
  %154 = bitcast %"class.std::__1::__compressed_pair"* %153 to %"class.std::__1::__libcpp_compressed_pair_imp"*, !dbg !6095
  store %"class.std::__1::__libcpp_compressed_pair_imp"* %154, %"class.std::__1::__libcpp_compressed_pair_imp"** %130, align 8, !dbg !6095
  %155 = load %"class.std::__1::__libcpp_compressed_pair_imp"*, %"class.std::__1::__libcpp_compressed_pair_imp"** %130, align 8, !dbg !6095
  %156 = getelementptr inbounds %"class.std::__1::__libcpp_compressed_pair_imp", %"class.std::__1::__libcpp_compressed_pair_imp"* %155, i32 0, i32 0, !dbg !6096
  %157 = getelementptr inbounds %"struct.std::__1::basic_string<char, std::__1::char_traits<char>, std::__1::allocator<char> >::__rep", %"struct.std::__1::basic_string<char, std::__1::char_traits<char>, std::__1::allocator<char> >::__rep"* %156, i32 0, i32 0, !dbg !6097
  %158 = bitcast %union.anon* %157 to %"struct.std::__1::basic_string<char, std::__1::char_traits<char>, std::__1::allocator<char> >::__short"*, !dbg !6097
  %159 = getelementptr inbounds %"struct.std::__1::basic_string<char, std::__1::char_traits<char>, std::__1::allocator<char> >::__short", %"struct.std::__1::basic_string<char, std::__1::char_traits<char>, std::__1::allocator<char> >::__short"* %158, i32 0, i32 0, !dbg !6098
  %160 = bitcast %union.anon.0* %159 to i8*, !dbg !6098
  %161 = load i8, i8* %160, align 8, !dbg !6098
  %162 = zext i8 %161 to i32, !dbg !6093
  %163 = and i32 %162, 1, !dbg !6099
  %164 = icmp ne i32 %163, 0, !dbg !6093
  br i1 %164, label %165, label %176, !dbg !6092

; <label>:165:                                    ; preds = %147
  store %"class.std::__1::basic_string"* %150, %"class.std::__1::basic_string"** %124, align 8, !dbg !6100
  %166 = load %"class.std::__1::basic_string"*, %"class.std::__1::basic_string"** %124, align 8, !dbg !6100
  %167 = getelementptr inbounds %"class.std::__1::basic_string", %"class.std::__1::basic_string"* %166, i32 0, i32 0, !dbg !6101
  store %"class.std::__1::__compressed_pair"* %167, %"class.std::__1::__compressed_pair"** %123, align 8, !dbg !6102
  %168 = load %"class.std::__1::__compressed_pair"*, %"class.std::__1::__compressed_pair"** %123, align 8, !dbg !6102
  %169 = bitcast %"class.std::__1::__compressed_pair"* %168 to %"class.std::__1::__libcpp_compressed_pair_imp"*, !dbg !6103
  store %"class.std::__1::__libcpp_compressed_pair_imp"* %169, %"class.std::__1::__libcpp_compressed_pair_imp"** %122, align 8, !dbg !6103
  %170 = load %"class.std::__1::__libcpp_compressed_pair_imp"*, %"class.std::__1::__libcpp_compressed_pair_imp"** %122, align 8, !dbg !6103
  %171 = getelementptr inbounds %"class.std::__1::__libcpp_compressed_pair_imp", %"class.std::__1::__libcpp_compressed_pair_imp"* %170, i32 0, i32 0, !dbg !6104
  %172 = getelementptr inbounds %"struct.std::__1::basic_string<char, std::__1::char_traits<char>, std::__1::allocator<char> >::__rep", %"struct.std::__1::basic_string<char, std::__1::char_traits<char>, std::__1::allocator<char> >::__rep"* %171, i32 0, i32 0, !dbg !6105
  %173 = bitcast %union.anon* %172 to %"struct.std::__1::basic_string<char, std::__1::char_traits<char>, std::__1::allocator<char> >::__long"*, !dbg !6105
  %174 = getelementptr inbounds %"struct.std::__1::basic_string<char, std::__1::char_traits<char>, std::__1::allocator<char> >::__long", %"struct.std::__1::basic_string<char, std::__1::char_traits<char>, std::__1::allocator<char> >::__long"* %173, i32 0, i32 2, !dbg !6106
  %175 = load i8*, i8** %174, align 8, !dbg !6106
  br label %189, !dbg !6092

; <label>:176:                                    ; preds = %147
  store %"class.std::__1::basic_string"* %150, %"class.std::__1::basic_string"** %129, align 8, !dbg !6107
  %177 = load %"class.std::__1::basic_string"*, %"class.std::__1::basic_string"** %129, align 8, !dbg !6107
  %178 = getelementptr inbounds %"class.std::__1::basic_string", %"class.std::__1::basic_string"* %177, i32 0, i32 0, !dbg !6108
  store %"class.std::__1::__compressed_pair"* %178, %"class.std::__1::__compressed_pair"** %128, align 8, !dbg !6109
  %179 = load %"class.std::__1::__compressed_pair"*, %"class.std::__1::__compressed_pair"** %128, align 8, !dbg !6109
  %180 = bitcast %"class.std::__1::__compressed_pair"* %179 to %"class.std::__1::__libcpp_compressed_pair_imp"*, !dbg !6110
  store %"class.std::__1::__libcpp_compressed_pair_imp"* %180, %"class.std::__1::__libcpp_compressed_pair_imp"** %127, align 8, !dbg !6110
  %181 = load %"class.std::__1::__libcpp_compressed_pair_imp"*, %"class.std::__1::__libcpp_compressed_pair_imp"** %127, align 8, !dbg !6110
  %182 = getelementptr inbounds %"class.std::__1::__libcpp_compressed_pair_imp", %"class.std::__1::__libcpp_compressed_pair_imp"* %181, i32 0, i32 0, !dbg !6111
  %183 = getelementptr inbounds %"struct.std::__1::basic_string<char, std::__1::char_traits<char>, std::__1::allocator<char> >::__rep", %"struct.std::__1::basic_string<char, std::__1::char_traits<char>, std::__1::allocator<char> >::__rep"* %182, i32 0, i32 0, !dbg !6112
  %184 = bitcast %union.anon* %183 to %"struct.std::__1::basic_string<char, std::__1::char_traits<char>, std::__1::allocator<char> >::__short"*, !dbg !6112
  %185 = getelementptr inbounds %"struct.std::__1::basic_string<char, std::__1::char_traits<char>, std::__1::allocator<char> >::__short", %"struct.std::__1::basic_string<char, std::__1::char_traits<char>, std::__1::allocator<char> >::__short"* %184, i32 0, i32 1, !dbg !6113
  %186 = getelementptr inbounds [23 x i8], [23 x i8]* %185, i64 0, i64 0, !dbg !6108
  store i8* %186, i8** %126, align 8, !dbg !6114
  %187 = load i8*, i8** %126, align 8, !dbg !6115
  store i8* %187, i8** %125, align 8, !dbg !6116
  %188 = load i8*, i8** %125, align 8, !dbg !6117
  br label %189, !dbg !6092

; <label>:189:                                    ; preds = %165, %176
  %190 = phi i8* [ %175, %165 ], [ %188, %176 ], !dbg !6092
  store i8* %190, i8** %121, align 8, !dbg !6118
  %191 = load i8*, i8** %121, align 8, !dbg !6119
  %192 = getelementptr inbounds %"class.std::__1::basic_stringbuf", %"class.std::__1::basic_stringbuf"* %138, i32 0, i32 1, !dbg !6120
  store %"class.std::__1::basic_string"* %192, %"class.std::__1::basic_string"** %75, align 8, !dbg !6121
  %193 = load %"class.std::__1::basic_string"*, %"class.std::__1::basic_string"** %75, align 8, !dbg !6121
  store %"class.std::__1::basic_string"* %193, %"class.std::__1::basic_string"** %74, align 8, !dbg !6122
  %194 = load %"class.std::__1::basic_string"*, %"class.std::__1::basic_string"** %74, align 8, !dbg !6122
  %195 = getelementptr inbounds %"class.std::__1::basic_string", %"class.std::__1::basic_string"* %194, i32 0, i32 0, !dbg !6123
  store %"class.std::__1::__compressed_pair"* %195, %"class.std::__1::__compressed_pair"** %73, align 8, !dbg !6124
  %196 = load %"class.std::__1::__compressed_pair"*, %"class.std::__1::__compressed_pair"** %73, align 8, !dbg !6124
  %197 = bitcast %"class.std::__1::__compressed_pair"* %196 to %"class.std::__1::__libcpp_compressed_pair_imp"*, !dbg !6125
  store %"class.std::__1::__libcpp_compressed_pair_imp"* %197, %"class.std::__1::__libcpp_compressed_pair_imp"** %72, align 8, !dbg !6125
  %198 = load %"class.std::__1::__libcpp_compressed_pair_imp"*, %"class.std::__1::__libcpp_compressed_pair_imp"** %72, align 8, !dbg !6125
  %199 = getelementptr inbounds %"class.std::__1::__libcpp_compressed_pair_imp", %"class.std::__1::__libcpp_compressed_pair_imp"* %198, i32 0, i32 0, !dbg !6126
  %200 = getelementptr inbounds %"struct.std::__1::basic_string<char, std::__1::char_traits<char>, std::__1::allocator<char> >::__rep", %"struct.std::__1::basic_string<char, std::__1::char_traits<char>, std::__1::allocator<char> >::__rep"* %199, i32 0, i32 0, !dbg !6127
  %201 = bitcast %union.anon* %200 to %"struct.std::__1::basic_string<char, std::__1::char_traits<char>, std::__1::allocator<char> >::__short"*, !dbg !6127
  %202 = getelementptr inbounds %"struct.std::__1::basic_string<char, std::__1::char_traits<char>, std::__1::allocator<char> >::__short", %"struct.std::__1::basic_string<char, std::__1::char_traits<char>, std::__1::allocator<char> >::__short"* %201, i32 0, i32 0, !dbg !6128
  %203 = bitcast %union.anon.0* %202 to i8*, !dbg !6128
  %204 = load i8, i8* %203, align 8, !dbg !6128
  %205 = zext i8 %204 to i32, !dbg !6123
  %206 = and i32 %205, 1, !dbg !6129
  %207 = icmp ne i32 %206, 0, !dbg !6123
  br i1 %207, label %208, label %219, !dbg !6122

; <label>:208:                                    ; preds = %189
  store %"class.std::__1::basic_string"* %193, %"class.std::__1::basic_string"** %68, align 8, !dbg !6130
  %209 = load %"class.std::__1::basic_string"*, %"class.std::__1::basic_string"** %68, align 8, !dbg !6130
  %210 = getelementptr inbounds %"class.std::__1::basic_string", %"class.std::__1::basic_string"* %209, i32 0, i32 0, !dbg !6131
  store %"class.std::__1::__compressed_pair"* %210, %"class.std::__1::__compressed_pair"** %67, align 8, !dbg !6132
  %211 = load %"class.std::__1::__compressed_pair"*, %"class.std::__1::__compressed_pair"** %67, align 8, !dbg !6132
  %212 = bitcast %"class.std::__1::__compressed_pair"* %211 to %"class.std::__1::__libcpp_compressed_pair_imp"*, !dbg !6133
  store %"class.std::__1::__libcpp_compressed_pair_imp"* %212, %"class.std::__1::__libcpp_compressed_pair_imp"** %66, align 8, !dbg !6133
  %213 = load %"class.std::__1::__libcpp_compressed_pair_imp"*, %"class.std::__1::__libcpp_compressed_pair_imp"** %66, align 8, !dbg !6133
  %214 = getelementptr inbounds %"class.std::__1::__libcpp_compressed_pair_imp", %"class.std::__1::__libcpp_compressed_pair_imp"* %213, i32 0, i32 0, !dbg !6134
  %215 = getelementptr inbounds %"struct.std::__1::basic_string<char, std::__1::char_traits<char>, std::__1::allocator<char> >::__rep", %"struct.std::__1::basic_string<char, std::__1::char_traits<char>, std::__1::allocator<char> >::__rep"* %214, i32 0, i32 0, !dbg !6135
  %216 = bitcast %union.anon* %215 to %"struct.std::__1::basic_string<char, std::__1::char_traits<char>, std::__1::allocator<char> >::__long"*, !dbg !6135
  %217 = getelementptr inbounds %"struct.std::__1::basic_string<char, std::__1::char_traits<char>, std::__1::allocator<char> >::__long", %"struct.std::__1::basic_string<char, std::__1::char_traits<char>, std::__1::allocator<char> >::__long"* %216, i32 0, i32 1, !dbg !6136
  %218 = load i64, i64* %217, align 8, !dbg !6136
  br label %234, !dbg !6122

; <label>:219:                                    ; preds = %189
  store %"class.std::__1::basic_string"* %193, %"class.std::__1::basic_string"** %71, align 8, !dbg !6137
  %220 = load %"class.std::__1::basic_string"*, %"class.std::__1::basic_string"** %71, align 8, !dbg !6137
  %221 = getelementptr inbounds %"class.std::__1::basic_string", %"class.std::__1::basic_string"* %220, i32 0, i32 0, !dbg !6138
  store %"class.std::__1::__compressed_pair"* %221, %"class.std::__1::__compressed_pair"** %70, align 8, !dbg !6139
  %222 = load %"class.std::__1::__compressed_pair"*, %"class.std::__1::__compressed_pair"** %70, align 8, !dbg !6139
  %223 = bitcast %"class.std::__1::__compressed_pair"* %222 to %"class.std::__1::__libcpp_compressed_pair_imp"*, !dbg !6140
  store %"class.std::__1::__libcpp_compressed_pair_imp"* %223, %"class.std::__1::__libcpp_compressed_pair_imp"** %69, align 8, !dbg !6140
  %224 = load %"class.std::__1::__libcpp_compressed_pair_imp"*, %"class.std::__1::__libcpp_compressed_pair_imp"** %69, align 8, !dbg !6140
  %225 = getelementptr inbounds %"class.std::__1::__libcpp_compressed_pair_imp", %"class.std::__1::__libcpp_compressed_pair_imp"* %224, i32 0, i32 0, !dbg !6141
  %226 = getelementptr inbounds %"struct.std::__1::basic_string<char, std::__1::char_traits<char>, std::__1::allocator<char> >::__rep", %"struct.std::__1::basic_string<char, std::__1::char_traits<char>, std::__1::allocator<char> >::__rep"* %225, i32 0, i32 0, !dbg !6142
  %227 = bitcast %union.anon* %226 to %"struct.std::__1::basic_string<char, std::__1::char_traits<char>, std::__1::allocator<char> >::__short"*, !dbg !6142
  %228 = getelementptr inbounds %"struct.std::__1::basic_string<char, std::__1::char_traits<char>, std::__1::allocator<char> >::__short", %"struct.std::__1::basic_string<char, std::__1::char_traits<char>, std::__1::allocator<char> >::__short"* %227, i32 0, i32 0, !dbg !6143
  %229 = bitcast %union.anon.0* %228 to i8*, !dbg !6143
  %230 = load i8, i8* %229, align 8, !dbg !6143
  %231 = zext i8 %230 to i32, !dbg !6138
  %232 = ashr i32 %231, 1, !dbg !6144
  %233 = sext i32 %232 to i64, !dbg !6138
  br label %234, !dbg !6122

; <label>:234:                                    ; preds = %208, %219
  %235 = phi i64 [ %218, %208 ], [ %233, %219 ], !dbg !6122
  %236 = getelementptr inbounds i8, i8* %191, i64 %235, !dbg !6145
  %237 = getelementptr inbounds %"class.std::__1::basic_stringbuf", %"class.std::__1::basic_stringbuf"* %138, i32 0, i32 2, !dbg !6146
  store i8* %236, i8** %237, align 8, !dbg !6147
  %238 = bitcast %"class.std::__1::basic_stringbuf"* %138 to %"class.std::__1::basic_streambuf"*, !dbg !6148
  %239 = getelementptr inbounds %"class.std::__1::basic_stringbuf", %"class.std::__1::basic_stringbuf"* %138, i32 0, i32 1, !dbg !6149
  store %"class.std::__1::basic_string"* %239, %"class.std::__1::basic_string"** %16, align 8, !dbg !6150
  %240 = load %"class.std::__1::basic_string"*, %"class.std::__1::basic_string"** %16, align 8, !dbg !6150
  store %"class.std::__1::basic_string"* %240, %"class.std::__1::basic_string"** %15, align 8, !dbg !6151
  %241 = load %"class.std::__1::basic_string"*, %"class.std::__1::basic_string"** %15, align 8, !dbg !6151
  store %"class.std::__1::basic_string"* %241, %"class.std::__1::basic_string"** %14, align 8, !dbg !6152
  %242 = load %"class.std::__1::basic_string"*, %"class.std::__1::basic_string"** %14, align 8, !dbg !6152
  %243 = getelementptr inbounds %"class.std::__1::basic_string", %"class.std::__1::basic_string"* %242, i32 0, i32 0, !dbg !6153
  store %"class.std::__1::__compressed_pair"* %243, %"class.std::__1::__compressed_pair"** %13, align 8, !dbg !6154
  %244 = load %"class.std::__1::__compressed_pair"*, %"class.std::__1::__compressed_pair"** %13, align 8, !dbg !6154
  %245 = bitcast %"class.std::__1::__compressed_pair"* %244 to %"class.std::__1::__libcpp_compressed_pair_imp"*, !dbg !6155
  store %"class.std::__1::__libcpp_compressed_pair_imp"* %245, %"class.std::__1::__libcpp_compressed_pair_imp"** %12, align 8, !dbg !6155
  %246 = load %"class.std::__1::__libcpp_compressed_pair_imp"*, %"class.std::__1::__libcpp_compressed_pair_imp"** %12, align 8, !dbg !6155
  %247 = getelementptr inbounds %"class.std::__1::__libcpp_compressed_pair_imp", %"class.std::__1::__libcpp_compressed_pair_imp"* %246, i32 0, i32 0, !dbg !6156
  %248 = getelementptr inbounds %"struct.std::__1::basic_string<char, std::__1::char_traits<char>, std::__1::allocator<char> >::__rep", %"struct.std::__1::basic_string<char, std::__1::char_traits<char>, std::__1::allocator<char> >::__rep"* %247, i32 0, i32 0, !dbg !6157
  %249 = bitcast %union.anon* %248 to %"struct.std::__1::basic_string<char, std::__1::char_traits<char>, std::__1::allocator<char> >::__short"*, !dbg !6157
  %250 = getelementptr inbounds %"struct.std::__1::basic_string<char, std::__1::char_traits<char>, std::__1::allocator<char> >::__short", %"struct.std::__1::basic_string<char, std::__1::char_traits<char>, std::__1::allocator<char> >::__short"* %249, i32 0, i32 0, !dbg !6158
  %251 = bitcast %union.anon.0* %250 to i8*, !dbg !6158
  %252 = load i8, i8* %251, align 8, !dbg !6158
  %253 = zext i8 %252 to i32, !dbg !6153
  %254 = and i32 %253, 1, !dbg !6159
  %255 = icmp ne i32 %254, 0, !dbg !6153
  br i1 %255, label %256, label %267, !dbg !6152

; <label>:256:                                    ; preds = %234
  store %"class.std::__1::basic_string"* %241, %"class.std::__1::basic_string"** %6, align 8, !dbg !6160
  %257 = load %"class.std::__1::basic_string"*, %"class.std::__1::basic_string"** %6, align 8, !dbg !6160
  %258 = getelementptr inbounds %"class.std::__1::basic_string", %"class.std::__1::basic_string"* %257, i32 0, i32 0, !dbg !6161
  store %"class.std::__1::__compressed_pair"* %258, %"class.std::__1::__compressed_pair"** %5, align 8, !dbg !6162
  %259 = load %"class.std::__1::__compressed_pair"*, %"class.std::__1::__compressed_pair"** %5, align 8, !dbg !6162
  %260 = bitcast %"class.std::__1::__compressed_pair"* %259 to %"class.std::__1::__libcpp_compressed_pair_imp"*, !dbg !6163
  store %"class.std::__1::__libcpp_compressed_pair_imp"* %260, %"class.std::__1::__libcpp_compressed_pair_imp"** %4, align 8, !dbg !6163
  %261 = load %"class.std::__1::__libcpp_compressed_pair_imp"*, %"class.std::__1::__libcpp_compressed_pair_imp"** %4, align 8, !dbg !6163
  %262 = getelementptr inbounds %"class.std::__1::__libcpp_compressed_pair_imp", %"class.std::__1::__libcpp_compressed_pair_imp"* %261, i32 0, i32 0, !dbg !6164
  %263 = getelementptr inbounds %"struct.std::__1::basic_string<char, std::__1::char_traits<char>, std::__1::allocator<char> >::__rep", %"struct.std::__1::basic_string<char, std::__1::char_traits<char>, std::__1::allocator<char> >::__rep"* %262, i32 0, i32 0, !dbg !6165
  %264 = bitcast %union.anon* %263 to %"struct.std::__1::basic_string<char, std::__1::char_traits<char>, std::__1::allocator<char> >::__long"*, !dbg !6165
  %265 = getelementptr inbounds %"struct.std::__1::basic_string<char, std::__1::char_traits<char>, std::__1::allocator<char> >::__long", %"struct.std::__1::basic_string<char, std::__1::char_traits<char>, std::__1::allocator<char> >::__long"* %264, i32 0, i32 2, !dbg !6166
  %266 = load i8*, i8** %265, align 8, !dbg !6166
  br label %280, !dbg !6152

; <label>:267:                                    ; preds = %234
  store %"class.std::__1::basic_string"* %241, %"class.std::__1::basic_string"** %11, align 8, !dbg !6167
  %268 = load %"class.std::__1::basic_string"*, %"class.std::__1::basic_string"** %11, align 8, !dbg !6167
  %269 = getelementptr inbounds %"class.std::__1::basic_string", %"class.std::__1::basic_string"* %268, i32 0, i32 0, !dbg !6168
  store %"class.std::__1::__compressed_pair"* %269, %"class.std::__1::__compressed_pair"** %10, align 8, !dbg !6169
  %270 = load %"class.std::__1::__compressed_pair"*, %"class.std::__1::__compressed_pair"** %10, align 8, !dbg !6169
  %271 = bitcast %"class.std::__1::__compressed_pair"* %270 to %"class.std::__1::__libcpp_compressed_pair_imp"*, !dbg !6170
  store %"class.std::__1::__libcpp_compressed_pair_imp"* %271, %"class.std::__1::__libcpp_compressed_pair_imp"** %9, align 8, !dbg !6170
  %272 = load %"class.std::__1::__libcpp_compressed_pair_imp"*, %"class.std::__1::__libcpp_compressed_pair_imp"** %9, align 8, !dbg !6170
  %273 = getelementptr inbounds %"class.std::__1::__libcpp_compressed_pair_imp", %"class.std::__1::__libcpp_compressed_pair_imp"* %272, i32 0, i32 0, !dbg !6171
  %274 = getelementptr inbounds %"struct.std::__1::basic_string<char, std::__1::char_traits<char>, std::__1::allocator<char> >::__rep", %"struct.std::__1::basic_string<char, std::__1::char_traits<char>, std::__1::allocator<char> >::__rep"* %273, i32 0, i32 0, !dbg !6172
  %275 = bitcast %union.anon* %274 to %"struct.std::__1::basic_string<char, std::__1::char_traits<char>, std::__1::allocator<char> >::__short"*, !dbg !6172
  %276 = getelementptr inbounds %"struct.std::__1::basic_string<char, std::__1::char_traits<char>, std::__1::allocator<char> >::__short", %"struct.std::__1::basic_string<char, std::__1::char_traits<char>, std::__1::allocator<char> >::__short"* %275, i32 0, i32 1, !dbg !6173
  %277 = getelementptr inbounds [23 x i8], [23 x i8]* %276, i64 0, i64 0, !dbg !6168
  store i8* %277, i8** %8, align 8, !dbg !6174
  %278 = load i8*, i8** %8, align 8, !dbg !6175
  store i8* %278, i8** %7, align 8, !dbg !6176
  %279 = load i8*, i8** %7, align 8, !dbg !6177
  br label %280, !dbg !6152

; <label>:280:                                    ; preds = %256, %267
  %281 = phi i8* [ %266, %256 ], [ %279, %267 ], !dbg !6152
  store i8* %281, i8** %3, align 8, !dbg !6178
  %282 = load i8*, i8** %3, align 8, !dbg !6179
  %283 = getelementptr inbounds %"class.std::__1::basic_stringbuf", %"class.std::__1::basic_stringbuf"* %138, i32 0, i32 1, !dbg !6180
  store %"class.std::__1::basic_string"* %283, %"class.std::__1::basic_string"** %30, align 8, !dbg !6181
  %284 = load %"class.std::__1::basic_string"*, %"class.std::__1::basic_string"** %30, align 8, !dbg !6181
  store %"class.std::__1::basic_string"* %284, %"class.std::__1::basic_string"** %29, align 8, !dbg !6182
  %285 = load %"class.std::__1::basic_string"*, %"class.std::__1::basic_string"** %29, align 8, !dbg !6182
  store %"class.std::__1::basic_string"* %285, %"class.std::__1::basic_string"** %28, align 8, !dbg !6183
  %286 = load %"class.std::__1::basic_string"*, %"class.std::__1::basic_string"** %28, align 8, !dbg !6183
  %287 = getelementptr inbounds %"class.std::__1::basic_string", %"class.std::__1::basic_string"* %286, i32 0, i32 0, !dbg !6184
  store %"class.std::__1::__compressed_pair"* %287, %"class.std::__1::__compressed_pair"** %27, align 8, !dbg !6185
  %288 = load %"class.std::__1::__compressed_pair"*, %"class.std::__1::__compressed_pair"** %27, align 8, !dbg !6185
  %289 = bitcast %"class.std::__1::__compressed_pair"* %288 to %"class.std::__1::__libcpp_compressed_pair_imp"*, !dbg !6186
  store %"class.std::__1::__libcpp_compressed_pair_imp"* %289, %"class.std::__1::__libcpp_compressed_pair_imp"** %26, align 8, !dbg !6186
  %290 = load %"class.std::__1::__libcpp_compressed_pair_imp"*, %"class.std::__1::__libcpp_compressed_pair_imp"** %26, align 8, !dbg !6186
  %291 = getelementptr inbounds %"class.std::__1::__libcpp_compressed_pair_imp", %"class.std::__1::__libcpp_compressed_pair_imp"* %290, i32 0, i32 0, !dbg !6187
  %292 = getelementptr inbounds %"struct.std::__1::basic_string<char, std::__1::char_traits<char>, std::__1::allocator<char> >::__rep", %"struct.std::__1::basic_string<char, std::__1::char_traits<char>, std::__1::allocator<char> >::__rep"* %291, i32 0, i32 0, !dbg !6188
  %293 = bitcast %union.anon* %292 to %"struct.std::__1::basic_string<char, std::__1::char_traits<char>, std::__1::allocator<char> >::__short"*, !dbg !6188
  %294 = getelementptr inbounds %"struct.std::__1::basic_string<char, std::__1::char_traits<char>, std::__1::allocator<char> >::__short", %"struct.std::__1::basic_string<char, std::__1::char_traits<char>, std::__1::allocator<char> >::__short"* %293, i32 0, i32 0, !dbg !6189
  %295 = bitcast %union.anon.0* %294 to i8*, !dbg !6189
  %296 = load i8, i8* %295, align 8, !dbg !6189
  %297 = zext i8 %296 to i32, !dbg !6184
  %298 = and i32 %297, 1, !dbg !6190
  %299 = icmp ne i32 %298, 0, !dbg !6184
  br i1 %299, label %300, label %311, !dbg !6183

; <label>:300:                                    ; preds = %280
  store %"class.std::__1::basic_string"* %285, %"class.std::__1::basic_string"** %20, align 8, !dbg !6191
  %301 = load %"class.std::__1::basic_string"*, %"class.std::__1::basic_string"** %20, align 8, !dbg !6191
  %302 = getelementptr inbounds %"class.std::__1::basic_string", %"class.std::__1::basic_string"* %301, i32 0, i32 0, !dbg !6192
  store %"class.std::__1::__compressed_pair"* %302, %"class.std::__1::__compressed_pair"** %19, align 8, !dbg !6193
  %303 = load %"class.std::__1::__compressed_pair"*, %"class.std::__1::__compressed_pair"** %19, align 8, !dbg !6193
  %304 = bitcast %"class.std::__1::__compressed_pair"* %303 to %"class.std::__1::__libcpp_compressed_pair_imp"*, !dbg !6194
  store %"class.std::__1::__libcpp_compressed_pair_imp"* %304, %"class.std::__1::__libcpp_compressed_pair_imp"** %18, align 8, !dbg !6194
  %305 = load %"class.std::__1::__libcpp_compressed_pair_imp"*, %"class.std::__1::__libcpp_compressed_pair_imp"** %18, align 8, !dbg !6194
  %306 = getelementptr inbounds %"class.std::__1::__libcpp_compressed_pair_imp", %"class.std::__1::__libcpp_compressed_pair_imp"* %305, i32 0, i32 0, !dbg !6195
  %307 = getelementptr inbounds %"struct.std::__1::basic_string<char, std::__1::char_traits<char>, std::__1::allocator<char> >::__rep", %"struct.std::__1::basic_string<char, std::__1::char_traits<char>, std::__1::allocator<char> >::__rep"* %306, i32 0, i32 0, !dbg !6196
  %308 = bitcast %union.anon* %307 to %"struct.std::__1::basic_string<char, std::__1::char_traits<char>, std::__1::allocator<char> >::__long"*, !dbg !6196
  %309 = getelementptr inbounds %"struct.std::__1::basic_string<char, std::__1::char_traits<char>, std::__1::allocator<char> >::__long", %"struct.std::__1::basic_string<char, std::__1::char_traits<char>, std::__1::allocator<char> >::__long"* %308, i32 0, i32 2, !dbg !6197
  %310 = load i8*, i8** %309, align 8, !dbg !6197
  br label %324, !dbg !6183

; <label>:311:                                    ; preds = %280
  store %"class.std::__1::basic_string"* %285, %"class.std::__1::basic_string"** %25, align 8, !dbg !6198
  %312 = load %"class.std::__1::basic_string"*, %"class.std::__1::basic_string"** %25, align 8, !dbg !6198
  %313 = getelementptr inbounds %"class.std::__1::basic_string", %"class.std::__1::basic_string"* %312, i32 0, i32 0, !dbg !6199
  store %"class.std::__1::__compressed_pair"* %313, %"class.std::__1::__compressed_pair"** %24, align 8, !dbg !6200
  %314 = load %"class.std::__1::__compressed_pair"*, %"class.std::__1::__compressed_pair"** %24, align 8, !dbg !6200
  %315 = bitcast %"class.std::__1::__compressed_pair"* %314 to %"class.std::__1::__libcpp_compressed_pair_imp"*, !dbg !6201
  store %"class.std::__1::__libcpp_compressed_pair_imp"* %315, %"class.std::__1::__libcpp_compressed_pair_imp"** %23, align 8, !dbg !6201
  %316 = load %"class.std::__1::__libcpp_compressed_pair_imp"*, %"class.std::__1::__libcpp_compressed_pair_imp"** %23, align 8, !dbg !6201
  %317 = getelementptr inbounds %"class.std::__1::__libcpp_compressed_pair_imp", %"class.std::__1::__libcpp_compressed_pair_imp"* %316, i32 0, i32 0, !dbg !6202
  %318 = getelementptr inbounds %"struct.std::__1::basic_string<char, std::__1::char_traits<char>, std::__1::allocator<char> >::__rep", %"struct.std::__1::basic_string<char, std::__1::char_traits<char>, std::__1::allocator<char> >::__rep"* %317, i32 0, i32 0, !dbg !6203
  %319 = bitcast %union.anon* %318 to %"struct.std::__1::basic_string<char, std::__1::char_traits<char>, std::__1::allocator<char> >::__short"*, !dbg !6203
  %320 = getelementptr inbounds %"struct.std::__1::basic_string<char, std::__1::char_traits<char>, std::__1::allocator<char> >::__short", %"struct.std::__1::basic_string<char, std::__1::char_traits<char>, std::__1::allocator<char> >::__short"* %319, i32 0, i32 1, !dbg !6204
  %321 = getelementptr inbounds [23 x i8], [23 x i8]* %320, i64 0, i64 0, !dbg !6199
  store i8* %321, i8** %22, align 8, !dbg !6205
  %322 = load i8*, i8** %22, align 8, !dbg !6206
  store i8* %322, i8** %21, align 8, !dbg !6207
  %323 = load i8*, i8** %21, align 8, !dbg !6208
  br label %324, !dbg !6183

; <label>:324:                                    ; preds = %300, %311
  %325 = phi i8* [ %310, %300 ], [ %323, %311 ], !dbg !6183
  store i8* %325, i8** %17, align 8, !dbg !6209
  %326 = load i8*, i8** %17, align 8, !dbg !6210
  %327 = getelementptr inbounds %"class.std::__1::basic_stringbuf", %"class.std::__1::basic_stringbuf"* %138, i32 0, i32 2, !dbg !6211
  %328 = load i8*, i8** %327, align 8, !dbg !6211
  store %"class.std::__1::basic_streambuf"* %238, %"class.std::__1::basic_streambuf"** %31, align 8, !dbg !6148
  store i8* %282, i8** %32, align 8, !dbg !6148
  store i8* %326, i8** %33, align 8, !dbg !6148
  store i8* %328, i8** %34, align 8, !dbg !6148
  %329 = load %"class.std::__1::basic_streambuf"*, %"class.std::__1::basic_streambuf"** %31, align 8, !dbg !6148
  %330 = load i8*, i8** %32, align 8, !dbg !6212
  %331 = getelementptr inbounds %"class.std::__1::basic_streambuf", %"class.std::__1::basic_streambuf"* %329, i32 0, i32 2, !dbg !6213
  store i8* %330, i8** %331, align 8, !dbg !6214
  %332 = load i8*, i8** %33, align 8, !dbg !6215
  %333 = getelementptr inbounds %"class.std::__1::basic_streambuf", %"class.std::__1::basic_streambuf"* %329, i32 0, i32 3, !dbg !6216
  store i8* %332, i8** %333, align 8, !dbg !6217
  %334 = load i8*, i8** %34, align 8, !dbg !6218
  %335 = getelementptr inbounds %"class.std::__1::basic_streambuf", %"class.std::__1::basic_streambuf"* %329, i32 0, i32 4, !dbg !6219
  store i8* %334, i8** %335, align 8, !dbg !6220
  br label %336, !dbg !6221

; <label>:336:                                    ; preds = %324, %2
  %337 = getelementptr inbounds %"class.std::__1::basic_stringbuf", %"class.std::__1::basic_stringbuf"* %138, i32 0, i32 3, !dbg !6222
  %338 = load i32, i32* %337, align 8, !dbg !6222
  %339 = and i32 %338, 16, !dbg !6223
  %340 = icmp ne i32 %339, 0, !dbg !6222
  br i1 %340, label %341, label %623, !dbg !6224

; <label>:341:                                    ; preds = %336
  call void @llvm.dbg.declare(metadata i64* %137, metadata !6225, metadata !3978), !dbg !6226
  %342 = getelementptr inbounds %"class.std::__1::basic_stringbuf", %"class.std::__1::basic_stringbuf"* %138, i32 0, i32 1, !dbg !6227
  store %"class.std::__1::basic_string"* %342, %"class.std::__1::basic_string"** %44, align 8, !dbg !6228
  %343 = load %"class.std::__1::basic_string"*, %"class.std::__1::basic_string"** %44, align 8, !dbg !6228
  store %"class.std::__1::basic_string"* %343, %"class.std::__1::basic_string"** %43, align 8, !dbg !6229
  %344 = load %"class.std::__1::basic_string"*, %"class.std::__1::basic_string"** %43, align 8, !dbg !6229
  %345 = getelementptr inbounds %"class.std::__1::basic_string", %"class.std::__1::basic_string"* %344, i32 0, i32 0, !dbg !6230
  store %"class.std::__1::__compressed_pair"* %345, %"class.std::__1::__compressed_pair"** %42, align 8, !dbg !6231
  %346 = load %"class.std::__1::__compressed_pair"*, %"class.std::__1::__compressed_pair"** %42, align 8, !dbg !6231
  %347 = bitcast %"class.std::__1::__compressed_pair"* %346 to %"class.std::__1::__libcpp_compressed_pair_imp"*, !dbg !6232
  store %"class.std::__1::__libcpp_compressed_pair_imp"* %347, %"class.std::__1::__libcpp_compressed_pair_imp"** %41, align 8, !dbg !6232
  %348 = load %"class.std::__1::__libcpp_compressed_pair_imp"*, %"class.std::__1::__libcpp_compressed_pair_imp"** %41, align 8, !dbg !6232
  %349 = getelementptr inbounds %"class.std::__1::__libcpp_compressed_pair_imp", %"class.std::__1::__libcpp_compressed_pair_imp"* %348, i32 0, i32 0, !dbg !6233
  %350 = getelementptr inbounds %"struct.std::__1::basic_string<char, std::__1::char_traits<char>, std::__1::allocator<char> >::__rep", %"struct.std::__1::basic_string<char, std::__1::char_traits<char>, std::__1::allocator<char> >::__rep"* %349, i32 0, i32 0, !dbg !6234
  %351 = bitcast %union.anon* %350 to %"struct.std::__1::basic_string<char, std::__1::char_traits<char>, std::__1::allocator<char> >::__short"*, !dbg !6234
  %352 = getelementptr inbounds %"struct.std::__1::basic_string<char, std::__1::char_traits<char>, std::__1::allocator<char> >::__short", %"struct.std::__1::basic_string<char, std::__1::char_traits<char>, std::__1::allocator<char> >::__short"* %351, i32 0, i32 0, !dbg !6235
  %353 = bitcast %union.anon.0* %352 to i8*, !dbg !6235
  %354 = load i8, i8* %353, align 8, !dbg !6235
  %355 = zext i8 %354 to i32, !dbg !6230
  %356 = and i32 %355, 1, !dbg !6236
  %357 = icmp ne i32 %356, 0, !dbg !6230
  br i1 %357, label %358, label %369, !dbg !6229

; <label>:358:                                    ; preds = %341
  store %"class.std::__1::basic_string"* %343, %"class.std::__1::basic_string"** %37, align 8, !dbg !6237
  %359 = load %"class.std::__1::basic_string"*, %"class.std::__1::basic_string"** %37, align 8, !dbg !6237
  %360 = getelementptr inbounds %"class.std::__1::basic_string", %"class.std::__1::basic_string"* %359, i32 0, i32 0, !dbg !6238
  store %"class.std::__1::__compressed_pair"* %360, %"class.std::__1::__compressed_pair"** %36, align 8, !dbg !6239
  %361 = load %"class.std::__1::__compressed_pair"*, %"class.std::__1::__compressed_pair"** %36, align 8, !dbg !6239
  %362 = bitcast %"class.std::__1::__compressed_pair"* %361 to %"class.std::__1::__libcpp_compressed_pair_imp"*, !dbg !6240
  store %"class.std::__1::__libcpp_compressed_pair_imp"* %362, %"class.std::__1::__libcpp_compressed_pair_imp"** %35, align 8, !dbg !6240
  %363 = load %"class.std::__1::__libcpp_compressed_pair_imp"*, %"class.std::__1::__libcpp_compressed_pair_imp"** %35, align 8, !dbg !6240
  %364 = getelementptr inbounds %"class.std::__1::__libcpp_compressed_pair_imp", %"class.std::__1::__libcpp_compressed_pair_imp"* %363, i32 0, i32 0, !dbg !6241
  %365 = getelementptr inbounds %"struct.std::__1::basic_string<char, std::__1::char_traits<char>, std::__1::allocator<char> >::__rep", %"struct.std::__1::basic_string<char, std::__1::char_traits<char>, std::__1::allocator<char> >::__rep"* %364, i32 0, i32 0, !dbg !6242
  %366 = bitcast %union.anon* %365 to %"struct.std::__1::basic_string<char, std::__1::char_traits<char>, std::__1::allocator<char> >::__long"*, !dbg !6242
  %367 = getelementptr inbounds %"struct.std::__1::basic_string<char, std::__1::char_traits<char>, std::__1::allocator<char> >::__long", %"struct.std::__1::basic_string<char, std::__1::char_traits<char>, std::__1::allocator<char> >::__long"* %366, i32 0, i32 1, !dbg !6243
  %368 = load i64, i64* %367, align 8, !dbg !6243
  br label %384, !dbg !6229

; <label>:369:                                    ; preds = %341
  store %"class.std::__1::basic_string"* %343, %"class.std::__1::basic_string"** %40, align 8, !dbg !6244
  %370 = load %"class.std::__1::basic_string"*, %"class.std::__1::basic_string"** %40, align 8, !dbg !6244
  %371 = getelementptr inbounds %"class.std::__1::basic_string", %"class.std::__1::basic_string"* %370, i32 0, i32 0, !dbg !6245
  store %"class.std::__1::__compressed_pair"* %371, %"class.std::__1::__compressed_pair"** %39, align 8, !dbg !6246
  %372 = load %"class.std::__1::__compressed_pair"*, %"class.std::__1::__compressed_pair"** %39, align 8, !dbg !6246
  %373 = bitcast %"class.std::__1::__compressed_pair"* %372 to %"class.std::__1::__libcpp_compressed_pair_imp"*, !dbg !6247
  store %"class.std::__1::__libcpp_compressed_pair_imp"* %373, %"class.std::__1::__libcpp_compressed_pair_imp"** %38, align 8, !dbg !6247
  %374 = load %"class.std::__1::__libcpp_compressed_pair_imp"*, %"class.std::__1::__libcpp_compressed_pair_imp"** %38, align 8, !dbg !6247
  %375 = getelementptr inbounds %"class.std::__1::__libcpp_compressed_pair_imp", %"class.std::__1::__libcpp_compressed_pair_imp"* %374, i32 0, i32 0, !dbg !6248
  %376 = getelementptr inbounds %"struct.std::__1::basic_string<char, std::__1::char_traits<char>, std::__1::allocator<char> >::__rep", %"struct.std::__1::basic_string<char, std::__1::char_traits<char>, std::__1::allocator<char> >::__rep"* %375, i32 0, i32 0, !dbg !6249
  %377 = bitcast %union.anon* %376 to %"struct.std::__1::basic_string<char, std::__1::char_traits<char>, std::__1::allocator<char> >::__short"*, !dbg !6249
  %378 = getelementptr inbounds %"struct.std::__1::basic_string<char, std::__1::char_traits<char>, std::__1::allocator<char> >::__short", %"struct.std::__1::basic_string<char, std::__1::char_traits<char>, std::__1::allocator<char> >::__short"* %377, i32 0, i32 0, !dbg !6250
  %379 = bitcast %union.anon.0* %378 to i8*, !dbg !6250
  %380 = load i8, i8* %379, align 8, !dbg !6250
  %381 = zext i8 %380 to i32, !dbg !6245
  %382 = ashr i32 %381, 1, !dbg !6251
  %383 = sext i32 %382 to i64, !dbg !6245
  br label %384, !dbg !6229

; <label>:384:                                    ; preds = %358, %369
  %385 = phi i64 [ %368, %358 ], [ %383, %369 ], !dbg !6229
  store i64 %385, i64* %137, align 8, !dbg !6226
  %386 = getelementptr inbounds %"class.std::__1::basic_stringbuf", %"class.std::__1::basic_stringbuf"* %138, i32 0, i32 1, !dbg !6252
  store %"class.std::__1::basic_string"* %386, %"class.std::__1::basic_string"** %58, align 8, !dbg !6253
  %387 = load %"class.std::__1::basic_string"*, %"class.std::__1::basic_string"** %58, align 8, !dbg !6253
  store %"class.std::__1::basic_string"* %387, %"class.std::__1::basic_string"** %57, align 8, !dbg !6254
  %388 = load %"class.std::__1::basic_string"*, %"class.std::__1::basic_string"** %57, align 8, !dbg !6254
  store %"class.std::__1::basic_string"* %388, %"class.std::__1::basic_string"** %56, align 8, !dbg !6255
  %389 = load %"class.std::__1::basic_string"*, %"class.std::__1::basic_string"** %56, align 8, !dbg !6255
  %390 = getelementptr inbounds %"class.std::__1::basic_string", %"class.std::__1::basic_string"* %389, i32 0, i32 0, !dbg !6256
  store %"class.std::__1::__compressed_pair"* %390, %"class.std::__1::__compressed_pair"** %55, align 8, !dbg !6257
  %391 = load %"class.std::__1::__compressed_pair"*, %"class.std::__1::__compressed_pair"** %55, align 8, !dbg !6257
  %392 = bitcast %"class.std::__1::__compressed_pair"* %391 to %"class.std::__1::__libcpp_compressed_pair_imp"*, !dbg !6258
  store %"class.std::__1::__libcpp_compressed_pair_imp"* %392, %"class.std::__1::__libcpp_compressed_pair_imp"** %54, align 8, !dbg !6258
  %393 = load %"class.std::__1::__libcpp_compressed_pair_imp"*, %"class.std::__1::__libcpp_compressed_pair_imp"** %54, align 8, !dbg !6258
  %394 = getelementptr inbounds %"class.std::__1::__libcpp_compressed_pair_imp", %"class.std::__1::__libcpp_compressed_pair_imp"* %393, i32 0, i32 0, !dbg !6259
  %395 = getelementptr inbounds %"struct.std::__1::basic_string<char, std::__1::char_traits<char>, std::__1::allocator<char> >::__rep", %"struct.std::__1::basic_string<char, std::__1::char_traits<char>, std::__1::allocator<char> >::__rep"* %394, i32 0, i32 0, !dbg !6260
  %396 = bitcast %union.anon* %395 to %"struct.std::__1::basic_string<char, std::__1::char_traits<char>, std::__1::allocator<char> >::__short"*, !dbg !6260
  %397 = getelementptr inbounds %"struct.std::__1::basic_string<char, std::__1::char_traits<char>, std::__1::allocator<char> >::__short", %"struct.std::__1::basic_string<char, std::__1::char_traits<char>, std::__1::allocator<char> >::__short"* %396, i32 0, i32 0, !dbg !6261
  %398 = bitcast %union.anon.0* %397 to i8*, !dbg !6261
  %399 = load i8, i8* %398, align 8, !dbg !6261
  %400 = zext i8 %399 to i32, !dbg !6256
  %401 = and i32 %400, 1, !dbg !6262
  %402 = icmp ne i32 %401, 0, !dbg !6256
  br i1 %402, label %403, label %414, !dbg !6255

; <label>:403:                                    ; preds = %384
  store %"class.std::__1::basic_string"* %388, %"class.std::__1::basic_string"** %48, align 8, !dbg !6263
  %404 = load %"class.std::__1::basic_string"*, %"class.std::__1::basic_string"** %48, align 8, !dbg !6263
  %405 = getelementptr inbounds %"class.std::__1::basic_string", %"class.std::__1::basic_string"* %404, i32 0, i32 0, !dbg !6264
  store %"class.std::__1::__compressed_pair"* %405, %"class.std::__1::__compressed_pair"** %47, align 8, !dbg !6265
  %406 = load %"class.std::__1::__compressed_pair"*, %"class.std::__1::__compressed_pair"** %47, align 8, !dbg !6265
  %407 = bitcast %"class.std::__1::__compressed_pair"* %406 to %"class.std::__1::__libcpp_compressed_pair_imp"*, !dbg !6266
  store %"class.std::__1::__libcpp_compressed_pair_imp"* %407, %"class.std::__1::__libcpp_compressed_pair_imp"** %46, align 8, !dbg !6266
  %408 = load %"class.std::__1::__libcpp_compressed_pair_imp"*, %"class.std::__1::__libcpp_compressed_pair_imp"** %46, align 8, !dbg !6266
  %409 = getelementptr inbounds %"class.std::__1::__libcpp_compressed_pair_imp", %"class.std::__1::__libcpp_compressed_pair_imp"* %408, i32 0, i32 0, !dbg !6267
  %410 = getelementptr inbounds %"struct.std::__1::basic_string<char, std::__1::char_traits<char>, std::__1::allocator<char> >::__rep", %"struct.std::__1::basic_string<char, std::__1::char_traits<char>, std::__1::allocator<char> >::__rep"* %409, i32 0, i32 0, !dbg !6268
  %411 = bitcast %union.anon* %410 to %"struct.std::__1::basic_string<char, std::__1::char_traits<char>, std::__1::allocator<char> >::__long"*, !dbg !6268
  %412 = getelementptr inbounds %"struct.std::__1::basic_string<char, std::__1::char_traits<char>, std::__1::allocator<char> >::__long", %"struct.std::__1::basic_string<char, std::__1::char_traits<char>, std::__1::allocator<char> >::__long"* %411, i32 0, i32 2, !dbg !6269
  %413 = load i8*, i8** %412, align 8, !dbg !6269
  br label %427, !dbg !6255

; <label>:414:                                    ; preds = %384
  store %"class.std::__1::basic_string"* %388, %"class.std::__1::basic_string"** %53, align 8, !dbg !6270
  %415 = load %"class.std::__1::basic_string"*, %"class.std::__1::basic_string"** %53, align 8, !dbg !6270
  %416 = getelementptr inbounds %"class.std::__1::basic_string", %"class.std::__1::basic_string"* %415, i32 0, i32 0, !dbg !6271
  store %"class.std::__1::__compressed_pair"* %416, %"class.std::__1::__compressed_pair"** %52, align 8, !dbg !6272
  %417 = load %"class.std::__1::__compressed_pair"*, %"class.std::__1::__compressed_pair"** %52, align 8, !dbg !6272
  %418 = bitcast %"class.std::__1::__compressed_pair"* %417 to %"class.std::__1::__libcpp_compressed_pair_imp"*, !dbg !6273
  store %"class.std::__1::__libcpp_compressed_pair_imp"* %418, %"class.std::__1::__libcpp_compressed_pair_imp"** %51, align 8, !dbg !6273
  %419 = load %"class.std::__1::__libcpp_compressed_pair_imp"*, %"class.std::__1::__libcpp_compressed_pair_imp"** %51, align 8, !dbg !6273
  %420 = getelementptr inbounds %"class.std::__1::__libcpp_compressed_pair_imp", %"class.std::__1::__libcpp_compressed_pair_imp"* %419, i32 0, i32 0, !dbg !6274
  %421 = getelementptr inbounds %"struct.std::__1::basic_string<char, std::__1::char_traits<char>, std::__1::allocator<char> >::__rep", %"struct.std::__1::basic_string<char, std::__1::char_traits<char>, std::__1::allocator<char> >::__rep"* %420, i32 0, i32 0, !dbg !6275
  %422 = bitcast %union.anon* %421 to %"struct.std::__1::basic_string<char, std::__1::char_traits<char>, std::__1::allocator<char> >::__short"*, !dbg !6275
  %423 = getelementptr inbounds %"struct.std::__1::basic_string<char, std::__1::char_traits<char>, std::__1::allocator<char> >::__short", %"struct.std::__1::basic_string<char, std::__1::char_traits<char>, std::__1::allocator<char> >::__short"* %422, i32 0, i32 1, !dbg !6276
  %424 = getelementptr inbounds [23 x i8], [23 x i8]* %423, i64 0, i64 0, !dbg !6271
  store i8* %424, i8** %50, align 8, !dbg !6277
  %425 = load i8*, i8** %50, align 8, !dbg !6278
  store i8* %425, i8** %49, align 8, !dbg !6279
  %426 = load i8*, i8** %49, align 8, !dbg !6280
  br label %427, !dbg !6255

; <label>:427:                                    ; preds = %403, %414
  %428 = phi i8* [ %413, %403 ], [ %426, %414 ], !dbg !6255
  store i8* %428, i8** %45, align 8, !dbg !6281
  %429 = load i8*, i8** %45, align 8, !dbg !6282
  %430 = load i64, i64* %137, align 8, !dbg !6283
  %431 = getelementptr inbounds i8, i8* %429, i64 %430, !dbg !6284
  %432 = getelementptr inbounds %"class.std::__1::basic_stringbuf", %"class.std::__1::basic_stringbuf"* %138, i32 0, i32 2, !dbg !6285
  store i8* %431, i8** %432, align 8, !dbg !6286
  %433 = getelementptr inbounds %"class.std::__1::basic_stringbuf", %"class.std::__1::basic_stringbuf"* %138, i32 0, i32 1, !dbg !6287
  %434 = getelementptr inbounds %"class.std::__1::basic_stringbuf", %"class.std::__1::basic_stringbuf"* %138, i32 0, i32 1, !dbg !6288
  store %"class.std::__1::basic_string"* %434, %"class.std::__1::basic_string"** %65, align 8, !dbg !6289
  %435 = load %"class.std::__1::basic_string"*, %"class.std::__1::basic_string"** %65, align 8, !dbg !6289
  store %"class.std::__1::basic_string"* %435, %"class.std::__1::basic_string"** %64, align 8, !dbg !6290
  %436 = load %"class.std::__1::basic_string"*, %"class.std::__1::basic_string"** %64, align 8, !dbg !6290
  %437 = getelementptr inbounds %"class.std::__1::basic_string", %"class.std::__1::basic_string"* %436, i32 0, i32 0, !dbg !6291
  store %"class.std::__1::__compressed_pair"* %437, %"class.std::__1::__compressed_pair"** %63, align 8, !dbg !6292
  %438 = load %"class.std::__1::__compressed_pair"*, %"class.std::__1::__compressed_pair"** %63, align 8, !dbg !6292
  %439 = bitcast %"class.std::__1::__compressed_pair"* %438 to %"class.std::__1::__libcpp_compressed_pair_imp"*, !dbg !6293
  store %"class.std::__1::__libcpp_compressed_pair_imp"* %439, %"class.std::__1::__libcpp_compressed_pair_imp"** %62, align 8, !dbg !6293
  %440 = load %"class.std::__1::__libcpp_compressed_pair_imp"*, %"class.std::__1::__libcpp_compressed_pair_imp"** %62, align 8, !dbg !6293
  %441 = getelementptr inbounds %"class.std::__1::__libcpp_compressed_pair_imp", %"class.std::__1::__libcpp_compressed_pair_imp"* %440, i32 0, i32 0, !dbg !6294
  %442 = getelementptr inbounds %"struct.std::__1::basic_string<char, std::__1::char_traits<char>, std::__1::allocator<char> >::__rep", %"struct.std::__1::basic_string<char, std::__1::char_traits<char>, std::__1::allocator<char> >::__rep"* %441, i32 0, i32 0, !dbg !6295
  %443 = bitcast %union.anon* %442 to %"struct.std::__1::basic_string<char, std::__1::char_traits<char>, std::__1::allocator<char> >::__short"*, !dbg !6295
  %444 = getelementptr inbounds %"struct.std::__1::basic_string<char, std::__1::char_traits<char>, std::__1::allocator<char> >::__short", %"struct.std::__1::basic_string<char, std::__1::char_traits<char>, std::__1::allocator<char> >::__short"* %443, i32 0, i32 0, !dbg !6296
  %445 = bitcast %union.anon.0* %444 to i8*, !dbg !6296
  %446 = load i8, i8* %445, align 8, !dbg !6296
  %447 = zext i8 %446 to i32, !dbg !6291
  %448 = and i32 %447, 1, !dbg !6297
  %449 = icmp ne i32 %448, 0, !dbg !6291
  br i1 %449, label %450, label %462, !dbg !6290

; <label>:450:                                    ; preds = %427
  store %"class.std::__1::basic_string"* %435, %"class.std::__1::basic_string"** %61, align 8, !dbg !6298
  %451 = load %"class.std::__1::basic_string"*, %"class.std::__1::basic_string"** %61, align 8, !dbg !6298
  %452 = getelementptr inbounds %"class.std::__1::basic_string", %"class.std::__1::basic_string"* %451, i32 0, i32 0, !dbg !6299
  store %"class.std::__1::__compressed_pair"* %452, %"class.std::__1::__compressed_pair"** %60, align 8, !dbg !6300
  %453 = load %"class.std::__1::__compressed_pair"*, %"class.std::__1::__compressed_pair"** %60, align 8, !dbg !6300
  %454 = bitcast %"class.std::__1::__compressed_pair"* %453 to %"class.std::__1::__libcpp_compressed_pair_imp"*, !dbg !6301
  store %"class.std::__1::__libcpp_compressed_pair_imp"* %454, %"class.std::__1::__libcpp_compressed_pair_imp"** %59, align 8, !dbg !6301
  %455 = load %"class.std::__1::__libcpp_compressed_pair_imp"*, %"class.std::__1::__libcpp_compressed_pair_imp"** %59, align 8, !dbg !6301
  %456 = getelementptr inbounds %"class.std::__1::__libcpp_compressed_pair_imp", %"class.std::__1::__libcpp_compressed_pair_imp"* %455, i32 0, i32 0, !dbg !6302
  %457 = getelementptr inbounds %"struct.std::__1::basic_string<char, std::__1::char_traits<char>, std::__1::allocator<char> >::__rep", %"struct.std::__1::basic_string<char, std::__1::char_traits<char>, std::__1::allocator<char> >::__rep"* %456, i32 0, i32 0, !dbg !6303
  %458 = bitcast %union.anon* %457 to %"struct.std::__1::basic_string<char, std::__1::char_traits<char>, std::__1::allocator<char> >::__long"*, !dbg !6303
  %459 = getelementptr inbounds %"struct.std::__1::basic_string<char, std::__1::char_traits<char>, std::__1::allocator<char> >::__long", %"struct.std::__1::basic_string<char, std::__1::char_traits<char>, std::__1::allocator<char> >::__long"* %458, i32 0, i32 0, !dbg !6304
  %460 = load i64, i64* %459, align 8, !dbg !6304
  %461 = and i64 %460, -2, !dbg !6305
  br label %463, !dbg !6290

; <label>:462:                                    ; preds = %427
  br label %463, !dbg !6290

; <label>:463:                                    ; preds = %450, %462
  %464 = phi i64 [ %461, %450 ], [ 23, %462 ], !dbg !6290
  %465 = sub i64 %464, 1, !dbg !6306
  store %"class.std::__1::basic_string"* %433, %"class.std::__1::basic_string"** %76, align 8, !dbg !6307
  store i64 %465, i64* %77, align 8, !dbg !6307
  %466 = load %"class.std::__1::basic_string"*, %"class.std::__1::basic_string"** %76, align 8, !dbg !6307
  %467 = load i64, i64* %77, align 8, !dbg !6308
  call void @_ZNSt3__112basic_stringIcNS_11char_traitsIcEENS_9allocatorIcEEE6resizeEmc(%"class.std::__1::basic_string"* %466, i64 %467, i8 signext 0) #10, !dbg !6309
  %468 = bitcast %"class.std::__1::basic_stringbuf"* %138 to %"class.std::__1::basic_streambuf"*, !dbg !6310
  %469 = getelementptr inbounds %"class.std::__1::basic_stringbuf", %"class.std::__1::basic_stringbuf"* %138, i32 0, i32 1, !dbg !6311
  store %"class.std::__1::basic_string"* %469, %"class.std::__1::basic_string"** %91, align 8, !dbg !6312
  %470 = load %"class.std::__1::basic_string"*, %"class.std::__1::basic_string"** %91, align 8, !dbg !6312
  store %"class.std::__1::basic_string"* %470, %"class.std::__1::basic_string"** %90, align 8, !dbg !6313
  %471 = load %"class.std::__1::basic_string"*, %"class.std::__1::basic_string"** %90, align 8, !dbg !6313
  store %"class.std::__1::basic_string"* %471, %"class.std::__1::basic_string"** %89, align 8, !dbg !6314
  %472 = load %"class.std::__1::basic_string"*, %"class.std::__1::basic_string"** %89, align 8, !dbg !6314
  %473 = getelementptr inbounds %"class.std::__1::basic_string", %"class.std::__1::basic_string"* %472, i32 0, i32 0, !dbg !6315
  store %"class.std::__1::__compressed_pair"* %473, %"class.std::__1::__compressed_pair"** %88, align 8, !dbg !6316
  %474 = load %"class.std::__1::__compressed_pair"*, %"class.std::__1::__compressed_pair"** %88, align 8, !dbg !6316
  %475 = bitcast %"class.std::__1::__compressed_pair"* %474 to %"class.std::__1::__libcpp_compressed_pair_imp"*, !dbg !6317
  store %"class.std::__1::__libcpp_compressed_pair_imp"* %475, %"class.std::__1::__libcpp_compressed_pair_imp"** %87, align 8, !dbg !6317
  %476 = load %"class.std::__1::__libcpp_compressed_pair_imp"*, %"class.std::__1::__libcpp_compressed_pair_imp"** %87, align 8, !dbg !6317
  %477 = getelementptr inbounds %"class.std::__1::__libcpp_compressed_pair_imp", %"class.std::__1::__libcpp_compressed_pair_imp"* %476, i32 0, i32 0, !dbg !6318
  %478 = getelementptr inbounds %"struct.std::__1::basic_string<char, std::__1::char_traits<char>, std::__1::allocator<char> >::__rep", %"struct.std::__1::basic_string<char, std::__1::char_traits<char>, std::__1::allocator<char> >::__rep"* %477, i32 0, i32 0, !dbg !6319
  %479 = bitcast %union.anon* %478 to %"struct.std::__1::basic_string<char, std::__1::char_traits<char>, std::__1::allocator<char> >::__short"*, !dbg !6319
  %480 = getelementptr inbounds %"struct.std::__1::basic_string<char, std::__1::char_traits<char>, std::__1::allocator<char> >::__short", %"struct.std::__1::basic_string<char, std::__1::char_traits<char>, std::__1::allocator<char> >::__short"* %479, i32 0, i32 0, !dbg !6320
  %481 = bitcast %union.anon.0* %480 to i8*, !dbg !6320
  %482 = load i8, i8* %481, align 8, !dbg !6320
  %483 = zext i8 %482 to i32, !dbg !6315
  %484 = and i32 %483, 1, !dbg !6321
  %485 = icmp ne i32 %484, 0, !dbg !6315
  br i1 %485, label %486, label %497, !dbg !6314

; <label>:486:                                    ; preds = %463
  store %"class.std::__1::basic_string"* %471, %"class.std::__1::basic_string"** %81, align 8, !dbg !6322
  %487 = load %"class.std::__1::basic_string"*, %"class.std::__1::basic_string"** %81, align 8, !dbg !6322
  %488 = getelementptr inbounds %"class.std::__1::basic_string", %"class.std::__1::basic_string"* %487, i32 0, i32 0, !dbg !6323
  store %"class.std::__1::__compressed_pair"* %488, %"class.std::__1::__compressed_pair"** %80, align 8, !dbg !6324
  %489 = load %"class.std::__1::__compressed_pair"*, %"class.std::__1::__compressed_pair"** %80, align 8, !dbg !6324
  %490 = bitcast %"class.std::__1::__compressed_pair"* %489 to %"class.std::__1::__libcpp_compressed_pair_imp"*, !dbg !6325
  store %"class.std::__1::__libcpp_compressed_pair_imp"* %490, %"class.std::__1::__libcpp_compressed_pair_imp"** %79, align 8, !dbg !6325
  %491 = load %"class.std::__1::__libcpp_compressed_pair_imp"*, %"class.std::__1::__libcpp_compressed_pair_imp"** %79, align 8, !dbg !6325
  %492 = getelementptr inbounds %"class.std::__1::__libcpp_compressed_pair_imp", %"class.std::__1::__libcpp_compressed_pair_imp"* %491, i32 0, i32 0, !dbg !6326
  %493 = getelementptr inbounds %"struct.std::__1::basic_string<char, std::__1::char_traits<char>, std::__1::allocator<char> >::__rep", %"struct.std::__1::basic_string<char, std::__1::char_traits<char>, std::__1::allocator<char> >::__rep"* %492, i32 0, i32 0, !dbg !6327
  %494 = bitcast %union.anon* %493 to %"struct.std::__1::basic_string<char, std::__1::char_traits<char>, std::__1::allocator<char> >::__long"*, !dbg !6327
  %495 = getelementptr inbounds %"struct.std::__1::basic_string<char, std::__1::char_traits<char>, std::__1::allocator<char> >::__long", %"struct.std::__1::basic_string<char, std::__1::char_traits<char>, std::__1::allocator<char> >::__long"* %494, i32 0, i32 2, !dbg !6328
  %496 = load i8*, i8** %495, align 8, !dbg !6328
  br label %510, !dbg !6314

; <label>:497:                                    ; preds = %463
  store %"class.std::__1::basic_string"* %471, %"class.std::__1::basic_string"** %86, align 8, !dbg !6329
  %498 = load %"class.std::__1::basic_string"*, %"class.std::__1::basic_string"** %86, align 8, !dbg !6329
  %499 = getelementptr inbounds %"class.std::__1::basic_string", %"class.std::__1::basic_string"* %498, i32 0, i32 0, !dbg !6330
  store %"class.std::__1::__compressed_pair"* %499, %"class.std::__1::__compressed_pair"** %85, align 8, !dbg !6331
  %500 = load %"class.std::__1::__compressed_pair"*, %"class.std::__1::__compressed_pair"** %85, align 8, !dbg !6331
  %501 = bitcast %"class.std::__1::__compressed_pair"* %500 to %"class.std::__1::__libcpp_compressed_pair_imp"*, !dbg !6332
  store %"class.std::__1::__libcpp_compressed_pair_imp"* %501, %"class.std::__1::__libcpp_compressed_pair_imp"** %84, align 8, !dbg !6332
  %502 = load %"class.std::__1::__libcpp_compressed_pair_imp"*, %"class.std::__1::__libcpp_compressed_pair_imp"** %84, align 8, !dbg !6332
  %503 = getelementptr inbounds %"class.std::__1::__libcpp_compressed_pair_imp", %"class.std::__1::__libcpp_compressed_pair_imp"* %502, i32 0, i32 0, !dbg !6333
  %504 = getelementptr inbounds %"struct.std::__1::basic_string<char, std::__1::char_traits<char>, std::__1::allocator<char> >::__rep", %"struct.std::__1::basic_string<char, std::__1::char_traits<char>, std::__1::allocator<char> >::__rep"* %503, i32 0, i32 0, !dbg !6334
  %505 = bitcast %union.anon* %504 to %"struct.std::__1::basic_string<char, std::__1::char_traits<char>, std::__1::allocator<char> >::__short"*, !dbg !6334
  %506 = getelementptr inbounds %"struct.std::__1::basic_string<char, std::__1::char_traits<char>, std::__1::allocator<char> >::__short", %"struct.std::__1::basic_string<char, std::__1::char_traits<char>, std::__1::allocator<char> >::__short"* %505, i32 0, i32 1, !dbg !6335
  %507 = getelementptr inbounds [23 x i8], [23 x i8]* %506, i64 0, i64 0, !dbg !6330
  store i8* %507, i8** %83, align 8, !dbg !6336
  %508 = load i8*, i8** %83, align 8, !dbg !6337
  store i8* %508, i8** %82, align 8, !dbg !6338
  %509 = load i8*, i8** %82, align 8, !dbg !6339
  br label %510, !dbg !6314

; <label>:510:                                    ; preds = %486, %497
  %511 = phi i8* [ %496, %486 ], [ %509, %497 ], !dbg !6314
  store i8* %511, i8** %78, align 8, !dbg !6340
  %512 = load i8*, i8** %78, align 8, !dbg !6341
  %513 = getelementptr inbounds %"class.std::__1::basic_stringbuf", %"class.std::__1::basic_stringbuf"* %138, i32 0, i32 1, !dbg !6342
  store %"class.std::__1::basic_string"* %513, %"class.std::__1::basic_string"** %105, align 8, !dbg !6343
  %514 = load %"class.std::__1::basic_string"*, %"class.std::__1::basic_string"** %105, align 8, !dbg !6343
  store %"class.std::__1::basic_string"* %514, %"class.std::__1::basic_string"** %104, align 8, !dbg !6344
  %515 = load %"class.std::__1::basic_string"*, %"class.std::__1::basic_string"** %104, align 8, !dbg !6344
  store %"class.std::__1::basic_string"* %515, %"class.std::__1::basic_string"** %103, align 8, !dbg !6345
  %516 = load %"class.std::__1::basic_string"*, %"class.std::__1::basic_string"** %103, align 8, !dbg !6345
  %517 = getelementptr inbounds %"class.std::__1::basic_string", %"class.std::__1::basic_string"* %516, i32 0, i32 0, !dbg !6346
  store %"class.std::__1::__compressed_pair"* %517, %"class.std::__1::__compressed_pair"** %102, align 8, !dbg !6347
  %518 = load %"class.std::__1::__compressed_pair"*, %"class.std::__1::__compressed_pair"** %102, align 8, !dbg !6347
  %519 = bitcast %"class.std::__1::__compressed_pair"* %518 to %"class.std::__1::__libcpp_compressed_pair_imp"*, !dbg !6348
  store %"class.std::__1::__libcpp_compressed_pair_imp"* %519, %"class.std::__1::__libcpp_compressed_pair_imp"** %101, align 8, !dbg !6348
  %520 = load %"class.std::__1::__libcpp_compressed_pair_imp"*, %"class.std::__1::__libcpp_compressed_pair_imp"** %101, align 8, !dbg !6348
  %521 = getelementptr inbounds %"class.std::__1::__libcpp_compressed_pair_imp", %"class.std::__1::__libcpp_compressed_pair_imp"* %520, i32 0, i32 0, !dbg !6349
  %522 = getelementptr inbounds %"struct.std::__1::basic_string<char, std::__1::char_traits<char>, std::__1::allocator<char> >::__rep", %"struct.std::__1::basic_string<char, std::__1::char_traits<char>, std::__1::allocator<char> >::__rep"* %521, i32 0, i32 0, !dbg !6350
  %523 = bitcast %union.anon* %522 to %"struct.std::__1::basic_string<char, std::__1::char_traits<char>, std::__1::allocator<char> >::__short"*, !dbg !6350
  %524 = getelementptr inbounds %"struct.std::__1::basic_string<char, std::__1::char_traits<char>, std::__1::allocator<char> >::__short", %"struct.std::__1::basic_string<char, std::__1::char_traits<char>, std::__1::allocator<char> >::__short"* %523, i32 0, i32 0, !dbg !6351
  %525 = bitcast %union.anon.0* %524 to i8*, !dbg !6351
  %526 = load i8, i8* %525, align 8, !dbg !6351
  %527 = zext i8 %526 to i32, !dbg !6346
  %528 = and i32 %527, 1, !dbg !6352
  %529 = icmp ne i32 %528, 0, !dbg !6346
  br i1 %529, label %530, label %541, !dbg !6345

; <label>:530:                                    ; preds = %510
  store %"class.std::__1::basic_string"* %515, %"class.std::__1::basic_string"** %95, align 8, !dbg !6353
  %531 = load %"class.std::__1::basic_string"*, %"class.std::__1::basic_string"** %95, align 8, !dbg !6353
  %532 = getelementptr inbounds %"class.std::__1::basic_string", %"class.std::__1::basic_string"* %531, i32 0, i32 0, !dbg !6354
  store %"class.std::__1::__compressed_pair"* %532, %"class.std::__1::__compressed_pair"** %94, align 8, !dbg !6355
  %533 = load %"class.std::__1::__compressed_pair"*, %"class.std::__1::__compressed_pair"** %94, align 8, !dbg !6355
  %534 = bitcast %"class.std::__1::__compressed_pair"* %533 to %"class.std::__1::__libcpp_compressed_pair_imp"*, !dbg !6356
  store %"class.std::__1::__libcpp_compressed_pair_imp"* %534, %"class.std::__1::__libcpp_compressed_pair_imp"** %93, align 8, !dbg !6356
  %535 = load %"class.std::__1::__libcpp_compressed_pair_imp"*, %"class.std::__1::__libcpp_compressed_pair_imp"** %93, align 8, !dbg !6356
  %536 = getelementptr inbounds %"class.std::__1::__libcpp_compressed_pair_imp", %"class.std::__1::__libcpp_compressed_pair_imp"* %535, i32 0, i32 0, !dbg !6357
  %537 = getelementptr inbounds %"struct.std::__1::basic_string<char, std::__1::char_traits<char>, std::__1::allocator<char> >::__rep", %"struct.std::__1::basic_string<char, std::__1::char_traits<char>, std::__1::allocator<char> >::__rep"* %536, i32 0, i32 0, !dbg !6358
  %538 = bitcast %union.anon* %537 to %"struct.std::__1::basic_string<char, std::__1::char_traits<char>, std::__1::allocator<char> >::__long"*, !dbg !6358
  %539 = getelementptr inbounds %"struct.std::__1::basic_string<char, std::__1::char_traits<char>, std::__1::allocator<char> >::__long", %"struct.std::__1::basic_string<char, std::__1::char_traits<char>, std::__1::allocator<char> >::__long"* %538, i32 0, i32 2, !dbg !6359
  %540 = load i8*, i8** %539, align 8, !dbg !6359
  br label %554, !dbg !6345

; <label>:541:                                    ; preds = %510
  store %"class.std::__1::basic_string"* %515, %"class.std::__1::basic_string"** %100, align 8, !dbg !6360
  %542 = load %"class.std::__1::basic_string"*, %"class.std::__1::basic_string"** %100, align 8, !dbg !6360
  %543 = getelementptr inbounds %"class.std::__1::basic_string", %"class.std::__1::basic_string"* %542, i32 0, i32 0, !dbg !6361
  store %"class.std::__1::__compressed_pair"* %543, %"class.std::__1::__compressed_pair"** %99, align 8, !dbg !6362
  %544 = load %"class.std::__1::__compressed_pair"*, %"class.std::__1::__compressed_pair"** %99, align 8, !dbg !6362
  %545 = bitcast %"class.std::__1::__compressed_pair"* %544 to %"class.std::__1::__libcpp_compressed_pair_imp"*, !dbg !6363
  store %"class.std::__1::__libcpp_compressed_pair_imp"* %545, %"class.std::__1::__libcpp_compressed_pair_imp"** %98, align 8, !dbg !6363
  %546 = load %"class.std::__1::__libcpp_compressed_pair_imp"*, %"class.std::__1::__libcpp_compressed_pair_imp"** %98, align 8, !dbg !6363
  %547 = getelementptr inbounds %"class.std::__1::__libcpp_compressed_pair_imp", %"class.std::__1::__libcpp_compressed_pair_imp"* %546, i32 0, i32 0, !dbg !6364
  %548 = getelementptr inbounds %"struct.std::__1::basic_string<char, std::__1::char_traits<char>, std::__1::allocator<char> >::__rep", %"struct.std::__1::basic_string<char, std::__1::char_traits<char>, std::__1::allocator<char> >::__rep"* %547, i32 0, i32 0, !dbg !6365
  %549 = bitcast %union.anon* %548 to %"struct.std::__1::basic_string<char, std::__1::char_traits<char>, std::__1::allocator<char> >::__short"*, !dbg !6365
  %550 = getelementptr inbounds %"struct.std::__1::basic_string<char, std::__1::char_traits<char>, std::__1::allocator<char> >::__short", %"struct.std::__1::basic_string<char, std::__1::char_traits<char>, std::__1::allocator<char> >::__short"* %549, i32 0, i32 1, !dbg !6366
  %551 = getelementptr inbounds [23 x i8], [23 x i8]* %550, i64 0, i64 0, !dbg !6361
  store i8* %551, i8** %97, align 8, !dbg !6367
  %552 = load i8*, i8** %97, align 8, !dbg !6368
  store i8* %552, i8** %96, align 8, !dbg !6369
  %553 = load i8*, i8** %96, align 8, !dbg !6370
  br label %554, !dbg !6345

; <label>:554:                                    ; preds = %530, %541
  %555 = phi i8* [ %540, %530 ], [ %553, %541 ], !dbg !6345
  store i8* %555, i8** %92, align 8, !dbg !6371
  %556 = load i8*, i8** %92, align 8, !dbg !6372
  %557 = getelementptr inbounds %"class.std::__1::basic_stringbuf", %"class.std::__1::basic_stringbuf"* %138, i32 0, i32 1, !dbg !6373
  store %"class.std::__1::basic_string"* %557, %"class.std::__1::basic_string"** %115, align 8, !dbg !6374
  %558 = load %"class.std::__1::basic_string"*, %"class.std::__1::basic_string"** %115, align 8, !dbg !6374
  store %"class.std::__1::basic_string"* %558, %"class.std::__1::basic_string"** %114, align 8, !dbg !6375
  %559 = load %"class.std::__1::basic_string"*, %"class.std::__1::basic_string"** %114, align 8, !dbg !6375
  %560 = getelementptr inbounds %"class.std::__1::basic_string", %"class.std::__1::basic_string"* %559, i32 0, i32 0, !dbg !6376
  store %"class.std::__1::__compressed_pair"* %560, %"class.std::__1::__compressed_pair"** %113, align 8, !dbg !6377
  %561 = load %"class.std::__1::__compressed_pair"*, %"class.std::__1::__compressed_pair"** %113, align 8, !dbg !6377
  %562 = bitcast %"class.std::__1::__compressed_pair"* %561 to %"class.std::__1::__libcpp_compressed_pair_imp"*, !dbg !6378
  store %"class.std::__1::__libcpp_compressed_pair_imp"* %562, %"class.std::__1::__libcpp_compressed_pair_imp"** %112, align 8, !dbg !6378
  %563 = load %"class.std::__1::__libcpp_compressed_pair_imp"*, %"class.std::__1::__libcpp_compressed_pair_imp"** %112, align 8, !dbg !6378
  %564 = getelementptr inbounds %"class.std::__1::__libcpp_compressed_pair_imp", %"class.std::__1::__libcpp_compressed_pair_imp"* %563, i32 0, i32 0, !dbg !6379
  %565 = getelementptr inbounds %"struct.std::__1::basic_string<char, std::__1::char_traits<char>, std::__1::allocator<char> >::__rep", %"struct.std::__1::basic_string<char, std::__1::char_traits<char>, std::__1::allocator<char> >::__rep"* %564, i32 0, i32 0, !dbg !6380
  %566 = bitcast %union.anon* %565 to %"struct.std::__1::basic_string<char, std::__1::char_traits<char>, std::__1::allocator<char> >::__short"*, !dbg !6380
  %567 = getelementptr inbounds %"struct.std::__1::basic_string<char, std::__1::char_traits<char>, std::__1::allocator<char> >::__short", %"struct.std::__1::basic_string<char, std::__1::char_traits<char>, std::__1::allocator<char> >::__short"* %566, i32 0, i32 0, !dbg !6381
  %568 = bitcast %union.anon.0* %567 to i8*, !dbg !6381
  %569 = load i8, i8* %568, align 8, !dbg !6381
  %570 = zext i8 %569 to i32, !dbg !6376
  %571 = and i32 %570, 1, !dbg !6382
  %572 = icmp ne i32 %571, 0, !dbg !6376
  br i1 %572, label %573, label %584, !dbg !6375

; <label>:573:                                    ; preds = %554
  store %"class.std::__1::basic_string"* %558, %"class.std::__1::basic_string"** %108, align 8, !dbg !6383
  %574 = load %"class.std::__1::basic_string"*, %"class.std::__1::basic_string"** %108, align 8, !dbg !6383
  %575 = getelementptr inbounds %"class.std::__1::basic_string", %"class.std::__1::basic_string"* %574, i32 0, i32 0, !dbg !6384
  store %"class.std::__1::__compressed_pair"* %575, %"class.std::__1::__compressed_pair"** %107, align 8, !dbg !6385
  %576 = load %"class.std::__1::__compressed_pair"*, %"class.std::__1::__compressed_pair"** %107, align 8, !dbg !6385
  %577 = bitcast %"class.std::__1::__compressed_pair"* %576 to %"class.std::__1::__libcpp_compressed_pair_imp"*, !dbg !6386
  store %"class.std::__1::__libcpp_compressed_pair_imp"* %577, %"class.std::__1::__libcpp_compressed_pair_imp"** %106, align 8, !dbg !6386
  %578 = load %"class.std::__1::__libcpp_compressed_pair_imp"*, %"class.std::__1::__libcpp_compressed_pair_imp"** %106, align 8, !dbg !6386
  %579 = getelementptr inbounds %"class.std::__1::__libcpp_compressed_pair_imp", %"class.std::__1::__libcpp_compressed_pair_imp"* %578, i32 0, i32 0, !dbg !6387
  %580 = getelementptr inbounds %"struct.std::__1::basic_string<char, std::__1::char_traits<char>, std::__1::allocator<char> >::__rep", %"struct.std::__1::basic_string<char, std::__1::char_traits<char>, std::__1::allocator<char> >::__rep"* %579, i32 0, i32 0, !dbg !6388
  %581 = bitcast %union.anon* %580 to %"struct.std::__1::basic_string<char, std::__1::char_traits<char>, std::__1::allocator<char> >::__long"*, !dbg !6388
  %582 = getelementptr inbounds %"struct.std::__1::basic_string<char, std::__1::char_traits<char>, std::__1::allocator<char> >::__long", %"struct.std::__1::basic_string<char, std::__1::char_traits<char>, std::__1::allocator<char> >::__long"* %581, i32 0, i32 1, !dbg !6389
  %583 = load i64, i64* %582, align 8, !dbg !6389
  br label %599, !dbg !6375

; <label>:584:                                    ; preds = %554
  store %"class.std::__1::basic_string"* %558, %"class.std::__1::basic_string"** %111, align 8, !dbg !6390
  %585 = load %"class.std::__1::basic_string"*, %"class.std::__1::basic_string"** %111, align 8, !dbg !6390
  %586 = getelementptr inbounds %"class.std::__1::basic_string", %"class.std::__1::basic_string"* %585, i32 0, i32 0, !dbg !6391
  store %"class.std::__1::__compressed_pair"* %586, %"class.std::__1::__compressed_pair"** %110, align 8, !dbg !6392
  %587 = load %"class.std::__1::__compressed_pair"*, %"class.std::__1::__compressed_pair"** %110, align 8, !dbg !6392
  %588 = bitcast %"class.std::__1::__compressed_pair"* %587 to %"class.std::__1::__libcpp_compressed_pair_imp"*, !dbg !6393
  store %"class.std::__1::__libcpp_compressed_pair_imp"* %588, %"class.std::__1::__libcpp_compressed_pair_imp"** %109, align 8, !dbg !6393
  %589 = load %"class.std::__1::__libcpp_compressed_pair_imp"*, %"class.std::__1::__libcpp_compressed_pair_imp"** %109, align 8, !dbg !6393
  %590 = getelementptr inbounds %"class.std::__1::__libcpp_compressed_pair_imp", %"class.std::__1::__libcpp_compressed_pair_imp"* %589, i32 0, i32 0, !dbg !6394
  %591 = getelementptr inbounds %"struct.std::__1::basic_string<char, std::__1::char_traits<char>, std::__1::allocator<char> >::__rep", %"struct.std::__1::basic_string<char, std::__1::char_traits<char>, std::__1::allocator<char> >::__rep"* %590, i32 0, i32 0, !dbg !6395
  %592 = bitcast %union.anon* %591 to %"struct.std::__1::basic_string<char, std::__1::char_traits<char>, std::__1::allocator<char> >::__short"*, !dbg !6395
  %593 = getelementptr inbounds %"struct.std::__1::basic_string<char, std::__1::char_traits<char>, std::__1::allocator<char> >::__short", %"struct.std::__1::basic_string<char, std::__1::char_traits<char>, std::__1::allocator<char> >::__short"* %592, i32 0, i32 0, !dbg !6396
  %594 = bitcast %union.anon.0* %593 to i8*, !dbg !6396
  %595 = load i8, i8* %594, align 8, !dbg !6396
  %596 = zext i8 %595 to i32, !dbg !6391
  %597 = ashr i32 %596, 1, !dbg !6397
  %598 = sext i32 %597 to i64, !dbg !6391
  br label %599, !dbg !6375

; <label>:599:                                    ; preds = %573, %584
  %600 = phi i64 [ %583, %573 ], [ %598, %584 ], !dbg !6375
  %601 = getelementptr inbounds i8, i8* %556, i64 %600, !dbg !6398
  store %"class.std::__1::basic_streambuf"* %468, %"class.std::__1::basic_streambuf"** %116, align 8, !dbg !6310
  store i8* %512, i8** %117, align 8, !dbg !6310
  store i8* %601, i8** %118, align 8, !dbg !6310
  %602 = load %"class.std::__1::basic_streambuf"*, %"class.std::__1::basic_streambuf"** %116, align 8, !dbg !6310
  %603 = load i8*, i8** %117, align 8, !dbg !6399
  %604 = getelementptr inbounds %"class.std::__1::basic_streambuf", %"class.std::__1::basic_streambuf"* %602, i32 0, i32 6, !dbg !6400
  store i8* %603, i8** %604, align 8, !dbg !6401
  %605 = getelementptr inbounds %"class.std::__1::basic_streambuf", %"class.std::__1::basic_streambuf"* %602, i32 0, i32 5, !dbg !6402
  store i8* %603, i8** %605, align 8, !dbg !6403
  %606 = load i8*, i8** %118, align 8, !dbg !6404
  %607 = getelementptr inbounds %"class.std::__1::basic_streambuf", %"class.std::__1::basic_streambuf"* %602, i32 0, i32 7, !dbg !6405
  store i8* %606, i8** %607, align 8, !dbg !6406
  %608 = getelementptr inbounds %"class.std::__1::basic_stringbuf", %"class.std::__1::basic_stringbuf"* %138, i32 0, i32 3, !dbg !6407
  %609 = load i32, i32* %608, align 8, !dbg !6407
  %610 = and i32 %609, 3, !dbg !6408
  %611 = icmp ne i32 %610, 0, !dbg !6407
  br i1 %611, label %612, label %622, !dbg !6409

; <label>:612:                                    ; preds = %599
  %613 = bitcast %"class.std::__1::basic_stringbuf"* %138 to %"class.std::__1::basic_streambuf"*, !dbg !6410
  %614 = load i64, i64* %137, align 8, !dbg !6411
  %615 = trunc i64 %614 to i32, !dbg !6411
  store %"class.std::__1::basic_streambuf"* %613, %"class.std::__1::basic_streambuf"** %119, align 8, !dbg !6410
  store i32 %615, i32* %120, align 4, !dbg !6410
  %616 = load %"class.std::__1::basic_streambuf"*, %"class.std::__1::basic_streambuf"** %119, align 8, !dbg !6410
  %617 = load i32, i32* %120, align 4, !dbg !6412
  %618 = getelementptr inbounds %"class.std::__1::basic_streambuf", %"class.std::__1::basic_streambuf"* %616, i32 0, i32 6, !dbg !6413
  %619 = load i8*, i8** %618, align 8, !dbg !6414
  %620 = sext i32 %617 to i64, !dbg !6414
  %621 = getelementptr inbounds i8, i8* %619, i64 %620, !dbg !6414
  store i8* %621, i8** %618, align 8, !dbg !6414
  br label %622, !dbg !6415

; <label>:622:                                    ; preds = %612, %599
  br label %623, !dbg !6416

; <label>:623:                                    ; preds = %622, %336
  ret void, !dbg !6417
}

; Function Attrs: inlinehint nounwind ssp uwtable
define linkonce_odr void @_ZNSt3__115basic_stringbufIcNS_11char_traitsIcEENS_9allocatorIcEEED1Ev(%"class.std::__1::basic_stringbuf"*) unnamed_addr #3 align 2 !dbg !6418 {
  %2 = alloca %"class.std::__1::basic_stringbuf"*, align 8
  store %"class.std::__1::basic_stringbuf"* %0, %"class.std::__1::basic_stringbuf"** %2, align 8
  call void @llvm.dbg.declare(metadata %"class.std::__1::basic_stringbuf"** %2, metadata !6422, metadata !3978), !dbg !6423
  %3 = load %"class.std::__1::basic_stringbuf"*, %"class.std::__1::basic_stringbuf"** %2, align 8
  call void @_ZNSt3__115basic_stringbufIcNS_11char_traitsIcEENS_9allocatorIcEEED2Ev(%"class.std::__1::basic_stringbuf"* %3) #10, !dbg !6424
  ret void, !dbg !6424
}

; Function Attrs: inlinehint nounwind ssp uwtable
define linkonce_odr void @_ZNSt3__115basic_stringbufIcNS_11char_traitsIcEENS_9allocatorIcEEED0Ev(%"class.std::__1::basic_stringbuf"*) unnamed_addr #3 align 2 !dbg !6425 {
  %2 = alloca %"class.std::__1::basic_stringbuf"*, align 8
  store %"class.std::__1::basic_stringbuf"* %0, %"class.std::__1::basic_stringbuf"** %2, align 8
  call void @llvm.dbg.declare(metadata %"class.std::__1::basic_stringbuf"** %2, metadata !6426, metadata !3978), !dbg !6427
  %3 = load %"class.std::__1::basic_stringbuf"*, %"class.std::__1::basic_stringbuf"** %2, align 8
  call void @_ZNSt3__115basic_stringbufIcNS_11char_traitsIcEENS_9allocatorIcEEED1Ev(%"class.std::__1::basic_stringbuf"* %3) #10, !dbg !6428
  %4 = bitcast %"class.std::__1::basic_stringbuf"* %3 to i8*, !dbg !6428
  call void @_ZdlPv(i8* %4) #12, !dbg !6428
  ret void, !dbg !6428
}

declare void @_ZNSt3__115basic_streambufIcNS_11char_traitsIcEEE5imbueERKNS_6localeE(%"class.std::__1::basic_streambuf"*, %"class.std::__1::locale"* dereferenceable(8)) unnamed_addr #1

declare %"class.std::__1::basic_streambuf"* @_ZNSt3__115basic_streambufIcNS_11char_traitsIcEEE6setbufEPcl(%"class.std::__1::basic_streambuf"*, i8*, i64) unnamed_addr #1

; Function Attrs: nounwind ssp uwtable
define linkonce_odr void @_ZNSt3__115basic_stringbufIcNS_11char_traitsIcEENS_9allocatorIcEEE7seekoffExNS_8ios_base7seekdirEj(%"class.std::__1::fpos"* noalias sret, %"class.std::__1::basic_stringbuf"*, i64, i32, i32) unnamed_addr #0 align 2 !dbg !6429 {
  %6 = alloca %"class.std::__1::basic_streambuf"*, align 8
  call void @llvm.dbg.declare(metadata %"class.std::__1::basic_streambuf"** %6, metadata !6430, metadata !3978), !dbg !6433
  %7 = alloca %"class.std::__1::fpos"*, align 8
  call void @llvm.dbg.declare(metadata %"class.std::__1::fpos"** %7, metadata !6436, metadata !3978), !dbg !6439
  %8 = alloca i64, align 8
  call void @llvm.dbg.declare(metadata i64* %8, metadata !6444, metadata !3978), !dbg !6445
  %9 = alloca %"class.std::__1::fpos"*, align 8
  call void @llvm.dbg.declare(metadata %"class.std::__1::fpos"** %9, metadata !6446, metadata !3978), !dbg !6447
  %10 = alloca i64, align 8
  call void @llvm.dbg.declare(metadata i64* %10, metadata !6448, metadata !3978), !dbg !6449
  %11 = alloca %"class.std::__1::fpos"*, align 8
  call void @llvm.dbg.declare(metadata %"class.std::__1::fpos"** %11, metadata !6436, metadata !3978), !dbg !6450
  %12 = alloca i64, align 8
  call void @llvm.dbg.declare(metadata i64* %12, metadata !6444, metadata !3978), !dbg !6454
  %13 = alloca %"class.std::__1::fpos"*, align 8
  call void @llvm.dbg.declare(metadata %"class.std::__1::fpos"** %13, metadata !6446, metadata !3978), !dbg !6455
  %14 = alloca i64, align 8
  call void @llvm.dbg.declare(metadata i64* %14, metadata !6448, metadata !3978), !dbg !6456
  %15 = alloca %"class.std::__1::basic_streambuf"*, align 8
  call void @llvm.dbg.declare(metadata %"class.std::__1::basic_streambuf"** %15, metadata !6457, metadata !3978), !dbg !6459
  %16 = alloca %"class.std::__1::basic_streambuf"*, align 8
  call void @llvm.dbg.declare(metadata %"class.std::__1::basic_streambuf"** %16, metadata !6463, metadata !3978), !dbg !6465
  %17 = alloca %"class.std::__1::basic_streambuf"*, align 8
  call void @llvm.dbg.declare(metadata %"class.std::__1::basic_streambuf"** %17, metadata !6430, metadata !3978), !dbg !6467
  %18 = alloca %"class.std::__1::basic_streambuf"*, align 8
  call void @llvm.dbg.declare(metadata %"class.std::__1::basic_streambuf"** %18, metadata !6469, metadata !3978), !dbg !6471
  %19 = alloca i8*, align 8
  call void @llvm.dbg.declare(metadata i8** %19, metadata !5242, metadata !3978), !dbg !6473
  %20 = alloca %"class.std::__1::__libcpp_compressed_pair_imp"*, align 8
  call void @llvm.dbg.declare(metadata %"class.std::__1::__libcpp_compressed_pair_imp"** %20, metadata !5254, metadata !3978), !dbg !6476
  %21 = alloca %"class.std::__1::__compressed_pair"*, align 8
  call void @llvm.dbg.declare(metadata %"class.std::__1::__compressed_pair"** %21, metadata !5265, metadata !3978), !dbg !6481
  %22 = alloca %"class.std::__1::basic_string"*, align 8
  call void @llvm.dbg.declare(metadata %"class.std::__1::basic_string"** %22, metadata !5268, metadata !3978), !dbg !6482
  %23 = alloca i8*, align 8
  call void @llvm.dbg.declare(metadata i8** %23, metadata !5270, metadata !3978), !dbg !6483
  %24 = alloca i8*, align 8
  call void @llvm.dbg.declare(metadata i8** %24, metadata !5295, metadata !3978), !dbg !6487
  %25 = alloca %"class.std::__1::__libcpp_compressed_pair_imp"*, align 8
  call void @llvm.dbg.declare(metadata %"class.std::__1::__libcpp_compressed_pair_imp"** %25, metadata !5254, metadata !3978), !dbg !6488
  %26 = alloca %"class.std::__1::__compressed_pair"*, align 8
  call void @llvm.dbg.declare(metadata %"class.std::__1::__compressed_pair"** %26, metadata !5265, metadata !3978), !dbg !6491
  %27 = alloca %"class.std::__1::basic_string"*, align 8
  call void @llvm.dbg.declare(metadata %"class.std::__1::basic_string"** %27, metadata !5301, metadata !3978), !dbg !6492
  %28 = alloca %"class.std::__1::__libcpp_compressed_pair_imp"*, align 8
  call void @llvm.dbg.declare(metadata %"class.std::__1::__libcpp_compressed_pair_imp"** %28, metadata !5254, metadata !3978), !dbg !6493
  %29 = alloca %"class.std::__1::__compressed_pair"*, align 8
  call void @llvm.dbg.declare(metadata %"class.std::__1::__compressed_pair"** %29, metadata !5265, metadata !3978), !dbg !6497
  %30 = alloca %"class.std::__1::basic_string"*, align 8
  call void @llvm.dbg.declare(metadata %"class.std::__1::basic_string"** %30, metadata !5309, metadata !3978), !dbg !6498
  %31 = alloca %"class.std::__1::basic_string"*, align 8
  call void @llvm.dbg.declare(metadata %"class.std::__1::basic_string"** %31, metadata !5311, metadata !3978), !dbg !6499
  %32 = alloca %"class.std::__1::basic_string"*, align 8
  call void @llvm.dbg.declare(metadata %"class.std::__1::basic_string"** %32, metadata !5313, metadata !3978), !dbg !6500
  %33 = alloca %"class.std::__1::fpos"*, align 8
  call void @llvm.dbg.declare(metadata %"class.std::__1::fpos"** %33, metadata !6436, metadata !3978), !dbg !6501
  %34 = alloca i64, align 8
  call void @llvm.dbg.declare(metadata i64* %34, metadata !6444, metadata !3978), !dbg !6504
  %35 = alloca %"class.std::__1::fpos"*, align 8
  call void @llvm.dbg.declare(metadata %"class.std::__1::fpos"** %35, metadata !6446, metadata !3978), !dbg !6505
  %36 = alloca i64, align 8
  call void @llvm.dbg.declare(metadata i64* %36, metadata !6448, metadata !3978), !dbg !6506
  %37 = alloca i8*, align 8
  call void @llvm.dbg.declare(metadata i8** %37, metadata !5242, metadata !3978), !dbg !6507
  %38 = alloca %"class.std::__1::__libcpp_compressed_pair_imp"*, align 8
  call void @llvm.dbg.declare(metadata %"class.std::__1::__libcpp_compressed_pair_imp"** %38, metadata !5254, metadata !3978), !dbg !6511
  %39 = alloca %"class.std::__1::__compressed_pair"*, align 8
  call void @llvm.dbg.declare(metadata %"class.std::__1::__compressed_pair"** %39, metadata !5265, metadata !3978), !dbg !6516
  %40 = alloca %"class.std::__1::basic_string"*, align 8
  call void @llvm.dbg.declare(metadata %"class.std::__1::basic_string"** %40, metadata !5268, metadata !3978), !dbg !6517
  %41 = alloca i8*, align 8
  call void @llvm.dbg.declare(metadata i8** %41, metadata !5270, metadata !3978), !dbg !6518
  %42 = alloca i8*, align 8
  call void @llvm.dbg.declare(metadata i8** %42, metadata !5295, metadata !3978), !dbg !6522
  %43 = alloca %"class.std::__1::__libcpp_compressed_pair_imp"*, align 8
  call void @llvm.dbg.declare(metadata %"class.std::__1::__libcpp_compressed_pair_imp"** %43, metadata !5254, metadata !3978), !dbg !6523
  %44 = alloca %"class.std::__1::__compressed_pair"*, align 8
  call void @llvm.dbg.declare(metadata %"class.std::__1::__compressed_pair"** %44, metadata !5265, metadata !3978), !dbg !6526
  %45 = alloca %"class.std::__1::basic_string"*, align 8
  call void @llvm.dbg.declare(metadata %"class.std::__1::basic_string"** %45, metadata !5301, metadata !3978), !dbg !6527
  %46 = alloca %"class.std::__1::__libcpp_compressed_pair_imp"*, align 8
  call void @llvm.dbg.declare(metadata %"class.std::__1::__libcpp_compressed_pair_imp"** %46, metadata !5254, metadata !3978), !dbg !6528
  %47 = alloca %"class.std::__1::__compressed_pair"*, align 8
  call void @llvm.dbg.declare(metadata %"class.std::__1::__compressed_pair"** %47, metadata !5265, metadata !3978), !dbg !6532
  %48 = alloca %"class.std::__1::basic_string"*, align 8
  call void @llvm.dbg.declare(metadata %"class.std::__1::basic_string"** %48, metadata !5309, metadata !3978), !dbg !6533
  %49 = alloca %"class.std::__1::basic_string"*, align 8
  call void @llvm.dbg.declare(metadata %"class.std::__1::basic_string"** %49, metadata !5311, metadata !3978), !dbg !6534
  %50 = alloca %"class.std::__1::basic_string"*, align 8
  call void @llvm.dbg.declare(metadata %"class.std::__1::basic_string"** %50, metadata !5313, metadata !3978), !dbg !6535
  %51 = alloca %"class.std::__1::fpos"*, align 8
  call void @llvm.dbg.declare(metadata %"class.std::__1::fpos"** %51, metadata !6436, metadata !3978), !dbg !6536
  %52 = alloca i64, align 8
  call void @llvm.dbg.declare(metadata i64* %52, metadata !6444, metadata !3978), !dbg !6539
  %53 = alloca %"class.std::__1::fpos"*, align 8
  call void @llvm.dbg.declare(metadata %"class.std::__1::fpos"** %53, metadata !6446, metadata !3978), !dbg !6540
  %54 = alloca i64, align 8
  call void @llvm.dbg.declare(metadata i64* %54, metadata !6448, metadata !3978), !dbg !6541
  %55 = alloca %"class.std::__1::basic_streambuf"*, align 8
  call void @llvm.dbg.declare(metadata %"class.std::__1::basic_streambuf"** %55, metadata !6457, metadata !3978), !dbg !6542
  %56 = alloca %"class.std::__1::fpos"*, align 8
  call void @llvm.dbg.declare(metadata %"class.std::__1::fpos"** %56, metadata !6436, metadata !3978), !dbg !6547
  %57 = alloca i64, align 8
  call void @llvm.dbg.declare(metadata i64* %57, metadata !6444, metadata !3978), !dbg !6550
  %58 = alloca %"class.std::__1::fpos"*, align 8
  call void @llvm.dbg.declare(metadata %"class.std::__1::fpos"** %58, metadata !6446, metadata !3978), !dbg !6551
  %59 = alloca i64, align 8
  call void @llvm.dbg.declare(metadata i64* %59, metadata !6448, metadata !3978), !dbg !6552
  %60 = alloca %"class.std::__1::basic_streambuf"*, align 8
  call void @llvm.dbg.declare(metadata %"class.std::__1::basic_streambuf"** %60, metadata !6430, metadata !3978), !dbg !6553
  %61 = alloca %"class.std::__1::fpos"*, align 8
  call void @llvm.dbg.declare(metadata %"class.std::__1::fpos"** %61, metadata !6436, metadata !3978), !dbg !6556
  %62 = alloca i64, align 8
  call void @llvm.dbg.declare(metadata i64* %62, metadata !6444, metadata !3978), !dbg !6559
  %63 = alloca %"class.std::__1::fpos"*, align 8
  call void @llvm.dbg.declare(metadata %"class.std::__1::fpos"** %63, metadata !6446, metadata !3978), !dbg !6560
  %64 = alloca i64, align 8
  call void @llvm.dbg.declare(metadata i64* %64, metadata !6448, metadata !3978), !dbg !6561
  %65 = alloca %"class.std::__1::basic_streambuf"*, align 8
  call void @llvm.dbg.declare(metadata %"class.std::__1::basic_streambuf"** %65, metadata !6463, metadata !3978), !dbg !6562
  %66 = alloca %"class.std::__1::basic_streambuf"*, align 8
  call void @llvm.dbg.declare(metadata %"class.std::__1::basic_streambuf"** %66, metadata !6463, metadata !3978), !dbg !6565
  %67 = alloca %"class.std::__1::basic_streambuf"*, align 8
  call void @llvm.dbg.declare(metadata %"class.std::__1::basic_streambuf"** %67, metadata !5848, metadata !3978), !dbg !6567
  %68 = alloca i8*, align 8
  call void @llvm.dbg.declare(metadata i8** %68, metadata !5852, metadata !3978), !dbg !6569
  %69 = alloca i8*, align 8
  call void @llvm.dbg.declare(metadata i8** %69, metadata !5854, metadata !3978), !dbg !6570
  %70 = alloca i8*, align 8
  call void @llvm.dbg.declare(metadata i8** %70, metadata !5856, metadata !3978), !dbg !6571
  %71 = alloca %"class.std::__1::basic_streambuf"*, align 8
  call void @llvm.dbg.declare(metadata %"class.std::__1::basic_streambuf"** %71, metadata !6469, metadata !3978), !dbg !6572
  %72 = alloca %"class.std::__1::basic_streambuf"*, align 8
  call void @llvm.dbg.declare(metadata %"class.std::__1::basic_streambuf"** %72, metadata !6576, metadata !3978), !dbg !6578
  %73 = alloca %"class.std::__1::basic_streambuf"*, align 8
  call void @llvm.dbg.declare(metadata %"class.std::__1::basic_streambuf"** %73, metadata !6034, metadata !3978), !dbg !6580
  %74 = alloca i8*, align 8
  call void @llvm.dbg.declare(metadata i8** %74, metadata !6038, metadata !3978), !dbg !6582
  %75 = alloca i8*, align 8
  call void @llvm.dbg.declare(metadata i8** %75, metadata !6040, metadata !3978), !dbg !6583
  %76 = alloca %"class.std::__1::basic_streambuf"*, align 8
  call void @llvm.dbg.declare(metadata %"class.std::__1::basic_streambuf"** %76, metadata !6042, metadata !3978), !dbg !6584
  %77 = alloca i32, align 4
  call void @llvm.dbg.declare(metadata i32* %77, metadata !6047, metadata !3978), !dbg !6586
  %78 = alloca %"class.std::__1::fpos"*, align 8
  call void @llvm.dbg.declare(metadata %"class.std::__1::fpos"** %78, metadata !6436, metadata !3978), !dbg !6587
  %79 = alloca i64, align 8
  call void @llvm.dbg.declare(metadata i64* %79, metadata !6444, metadata !3978), !dbg !6590
  %80 = alloca %"class.std::__1::fpos"*, align 8
  call void @llvm.dbg.declare(metadata %"class.std::__1::fpos"** %80, metadata !6446, metadata !3978), !dbg !6591
  %81 = alloca i64, align 8
  call void @llvm.dbg.declare(metadata i64* %81, metadata !6448, metadata !3978), !dbg !6592
  %82 = alloca %"class.std::__1::basic_streambuf"*, align 8
  call void @llvm.dbg.declare(metadata %"class.std::__1::basic_streambuf"** %82, metadata !6430, metadata !3978), !dbg !6593
  %83 = alloca %"class.std::__1::basic_stringbuf"*, align 8
  %84 = alloca i64, align 8
  %85 = alloca i32, align 4
  %86 = alloca i32, align 4
  %87 = alloca i64, align 8
  store %"class.std::__1::basic_stringbuf"* %1, %"class.std::__1::basic_stringbuf"** %83, align 8
  call void @llvm.dbg.declare(metadata %"class.std::__1::basic_stringbuf"** %83, metadata !6595, metadata !3978), !dbg !6596
  store i64 %2, i64* %84, align 8
  call void @llvm.dbg.declare(metadata i64* %84, metadata !6597, metadata !3978), !dbg !6598
  store i32 %3, i32* %85, align 4
  call void @llvm.dbg.declare(metadata i32* %85, metadata !6599, metadata !3978), !dbg !6600
  store i32 %4, i32* %86, align 4
  call void @llvm.dbg.declare(metadata i32* %86, metadata !6601, metadata !3978), !dbg !6602
  %88 = load %"class.std::__1::basic_stringbuf"*, %"class.std::__1::basic_stringbuf"** %83, align 8
  %89 = getelementptr inbounds %"class.std::__1::basic_stringbuf", %"class.std::__1::basic_stringbuf"* %88, i32 0, i32 2, !dbg !6603
  %90 = load i8*, i8** %89, align 8, !dbg !6603
  %91 = bitcast %"class.std::__1::basic_stringbuf"* %88 to %"class.std::__1::basic_streambuf"*, !dbg !6604
  store %"class.std::__1::basic_streambuf"* %91, %"class.std::__1::basic_streambuf"** %82, align 8, !dbg !6604
  %92 = load %"class.std::__1::basic_streambuf"*, %"class.std::__1::basic_streambuf"** %82, align 8, !dbg !6604
  %93 = getelementptr inbounds %"class.std::__1::basic_streambuf", %"class.std::__1::basic_streambuf"* %92, i32 0, i32 6, !dbg !6605
  %94 = load i8*, i8** %93, align 8, !dbg !6605
  %95 = icmp ult i8* %90, %94, !dbg !6606
  br i1 %95, label %96, label %102, !dbg !6607

; <label>:96:                                     ; preds = %5
  %97 = bitcast %"class.std::__1::basic_stringbuf"* %88 to %"class.std::__1::basic_streambuf"*, !dbg !6608
  store %"class.std::__1::basic_streambuf"* %97, %"class.std::__1::basic_streambuf"** %6, align 8, !dbg !6608
  %98 = load %"class.std::__1::basic_streambuf"*, %"class.std::__1::basic_streambuf"** %6, align 8, !dbg !6608
  %99 = getelementptr inbounds %"class.std::__1::basic_streambuf", %"class.std::__1::basic_streambuf"* %98, i32 0, i32 6, !dbg !6609
  %100 = load i8*, i8** %99, align 8, !dbg !6609
  %101 = getelementptr inbounds %"class.std::__1::basic_stringbuf", %"class.std::__1::basic_stringbuf"* %88, i32 0, i32 2, !dbg !6610
  store i8* %100, i8** %101, align 8, !dbg !6611
  br label %102, !dbg !6610

; <label>:102:                                    ; preds = %96, %5
  %103 = load i32, i32* %86, align 4, !dbg !6612
  %104 = and i32 %103, 24, !dbg !6613
  %105 = icmp eq i32 %104, 0, !dbg !6614
  br i1 %105, label %106, label %114, !dbg !6615

; <label>:106:                                    ; preds = %102
  store %"class.std::__1::fpos"* %0, %"class.std::__1::fpos"** %9, align 8, !dbg !6616
  store i64 -1, i64* %10, align 8, !dbg !6616
  %107 = load %"class.std::__1::fpos"*, %"class.std::__1::fpos"** %9, align 8, !dbg !6616
  %108 = load i64, i64* %10, align 8, !dbg !6617
  store %"class.std::__1::fpos"* %107, %"class.std::__1::fpos"** %7, align 8, !dbg !6617
  store i64 %108, i64* %8, align 8, !dbg !6617
  %109 = load %"class.std::__1::fpos"*, %"class.std::__1::fpos"** %7, align 8, !dbg !6617
  %110 = getelementptr inbounds %"class.std::__1::fpos", %"class.std::__1::fpos"* %109, i32 0, i32 0, !dbg !6618
  %111 = bitcast %union.__mbstate_t* %110 to i8*, !dbg !6618
  call void @llvm.memset.p0i8.i64(i8* %111, i8 0, i64 128, i32 8, i1 false) #10, !dbg !6618
  %112 = getelementptr inbounds %"class.std::__1::fpos", %"class.std::__1::fpos"* %109, i32 0, i32 1, !dbg !6619
  %113 = load i64, i64* %8, align 8, !dbg !6620
  store i64 %113, i64* %112, align 8, !dbg !6619
  br label %388, !dbg !6621

; <label>:114:                                    ; preds = %102
  %115 = load i32, i32* %86, align 4, !dbg !6622
  %116 = and i32 %115, 24, !dbg !6623
  %117 = icmp eq i32 %116, 24, !dbg !6624
  br i1 %117, label %118, label %129, !dbg !6625

; <label>:118:                                    ; preds = %114
  %119 = load i32, i32* %85, align 4, !dbg !6626
  %120 = icmp eq i32 %119, 1, !dbg !6627
  br i1 %120, label %121, label %129, !dbg !6628

; <label>:121:                                    ; preds = %118
